	.section	__TEXT,__text,regular,pure_instructions
	.macosx_version_min 10, 13
	.section	__TEXT,__literal8,8byte_literals
	.p2align	3               ## -- Begin function _ZN11thermostats15get_temperatureER9Particles
LCPI0_0:
	.quad	4582846695795964158     ## double 0.0249435
	.section	__TEXT,__text,regular,pure_instructions
	.globl	__ZN11thermostats15get_temperatureER9Particles
	.p2align	4, 0x90
__ZN11thermostats15get_temperatureER9Particles: ## @_ZN11thermostats15get_temperatureER9Particles
	.cfi_startproc
## %bb.0:
	pushq	%rbp
	.cfi_def_cfa_offset 16
	.cfi_offset %rbp, -16
	movq	%rsp, %rbp
	.cfi_def_cfa_register %rbp
	movslq	(%rdi), %r9
	testq	%r9, %r9
	jle	LBB0_1
## %bb.3:
	movq	8(%rdi), %r8
	vxorpd	%xmm0, %xmm0, %xmm0
	xorl	%edx, %edx
	.p2align	4, 0x90
LBB0_4:                                 ## =>This Loop Header: Depth=1
                                        ##     Child Loop BB0_7 Depth 2
	movq	(%r8,%rdx,8), %rcx
	movslq	(%rcx), %rsi
	testq	%rsi, %rsi
	jle	LBB0_8
## %bb.5:                               ##   in Loop: Header=BB0_4 Depth=1
	movq	8(%rcx), %rdi
	movq	(%rdi), %rcx
	vmovupd	48(%rcx), %xmm1
	vmulpd	%xmm1, %xmm1, %xmm1
	vpermilpd	$1, %xmm1, %xmm2 ## xmm2 = xmm1[1,0]
	vaddsd	%xmm2, %xmm1, %xmm1
	vmovsd	64(%rcx), %xmm2         ## xmm2 = mem[0],zero
	vmulsd	%xmm2, %xmm2, %xmm2
	vaddsd	%xmm1, %xmm2, %xmm1
	vmulsd	152(%rcx), %xmm1, %xmm1
	vaddsd	%xmm1, %xmm0, %xmm0
	cmpl	$1, %esi
	je	LBB0_8
## %bb.6:                               ##   in Loop: Header=BB0_4 Depth=1
	movl	$1, %ecx
	.p2align	4, 0x90
LBB0_7:                                 ##   Parent Loop BB0_4 Depth=1
                                        ## =>  This Inner Loop Header: Depth=2
	movq	(%rdi,%rcx,8), %rax
	vmovupd	48(%rax), %xmm1
	vmulpd	%xmm1, %xmm1, %xmm1
	vpermilpd	$1, %xmm1, %xmm2 ## xmm2 = xmm1[1,0]
	vaddsd	%xmm2, %xmm1, %xmm1
	vmovsd	64(%rax), %xmm2         ## xmm2 = mem[0],zero
	vmulsd	%xmm2, %xmm2, %xmm2
	vaddsd	%xmm1, %xmm2, %xmm1
	vmulsd	152(%rax), %xmm1, %xmm1
	vaddsd	%xmm1, %xmm0, %xmm0
	addq	$1, %rcx
	cmpq	%rsi, %rcx
	jl	LBB0_7
LBB0_8:                                 ##   in Loop: Header=BB0_4 Depth=1
	vcvtsi2sdl	%esi, %xmm3, %xmm1
	vdivsd	%xmm1, %xmm0, %xmm0
	addq	$1, %rdx
	cmpq	%r9, %rdx
	jl	LBB0_4
## %bb.2:
	vdivsd	LCPI0_0(%rip), %xmm0, %xmm0
	popq	%rbp
	retq
LBB0_1:
	vxorpd	%xmm0, %xmm0, %xmm0
	vdivsd	LCPI0_0(%rip), %xmm0, %xmm0
	popq	%rbp
	retq
	.cfi_endproc
                                        ## -- End function
	.section	__TEXT,__literal8,8byte_literals
	.p2align	3               ## -- Begin function main
LCPI1_0:
	.quad	4607182418800017408     ## double 1
	.section	__TEXT,__text,regular,pure_instructions
	.globl	_main
	.p2align	4, 0x90
_main:                                  ## @main
Lfunc_begin0:
	.cfi_startproc
	.cfi_personality 155, ___gxx_personality_v0
	.cfi_lsda 16, Lexception0
## %bb.0:
	pushq	%rbp
	.cfi_def_cfa_offset 16
	.cfi_offset %rbp, -16
	movq	%rsp, %rbp
	.cfi_def_cfa_register %rbp
	pushq	%r15
	pushq	%r14
	pushq	%r13
	pushq	%r12
	pushq	%rbx
	subq	$680, %rsp              ## imm = 0x2A8
	.cfi_offset %rbx, -56
	.cfi_offset %r12, -48
	.cfi_offset %r13, -40
	.cfi_offset %r14, -32
	.cfi_offset %r15, -24
	movq	%rsi, %r15
	movl	%edi, %r14d
	leaq	L_str(%rip), %rdi
	callq	_puts
	movl	$16, %edi
	callq	__Znwm
	vxorpd	%xmm0, %xmm0, %xmm0
	vmovhpd	LCPI1_0(%rip), %xmm0, %xmm1 ## xmm1 = xmm0[0],mem[0]
	vmovupd	%xmm1, (%rax)
	movq	__ZN4ran212distributionE@GOTPCREL(%rip), %rcx
	movq	%rax, (%rcx)
	movl	$0, -720(%rbp)
	vxorpd	%xmm1, %xmm1, %xmm1
	vmovupd	%ymm1, -692(%rbp)
	vmovupd	%ymm1, -712(%rbp)
	vmovupd	%ymm1, -568(%rbp)
	vmovupd	%ymm1, -592(%rbp)
	vmovupd	%ymm1, -624(%rbp)
	vmovupd	%ymm1, -656(%rbp)
	vmovapd	%xmm0, -224(%rbp)
	movq	$0, -208(%rbp)
	vmovapd	%xmm0, -192(%rbp)
	movq	$0, -176(%rbp)
	vmovapd	%xmm0, -160(%rbp)
	movq	$0, -144(%rbp)
	cmpl	$2, %r14d
	jl	LBB1_46
## %bb.1:
	movq	(%r15), %rbx
	movq	%rbx, %rdi
	vzeroupper
	callq	_strlen
Ltmp2:
	movq	__ZNSt3__14coutE@GOTPCREL(%rip), %rdi
	movq	%rbx, %rsi
	movq	%rax, %rdx
	callq	__ZNSt3__124__put_character_sequenceIcNS_11char_traitsIcEEEERNS_13basic_ostreamIT_T0_EES7_PKS4_m
Ltmp3:
## %bb.2:
Ltmp4:
	leaq	L_.str.1(%rip), %rsi
	movl	$1, %edx
	movq	%rax, %rdi
	callq	__ZNSt3__124__put_character_sequenceIcNS_11char_traitsIcEEEERNS_13basic_ostreamIT_T0_EES7_PKS4_m
	movq	%rax, %r12
Ltmp5:
## %bb.3:
	movq	8(%r15), %rbx
	movq	%rbx, %rdi
	callq	_strlen
Ltmp6:
	movq	%r12, %rdi
	movq	%rbx, %rsi
	movq	%rax, %rdx
	callq	__ZNSt3__124__put_character_sequenceIcNS_11char_traitsIcEEEERNS_13basic_ostreamIT_T0_EES7_PKS4_m
Ltmp7:
## %bb.4:
Ltmp8:
	leaq	L_.str.1(%rip), %rsi
	movl	$1, %edx
	movq	%rax, %rdi
	callq	__ZNSt3__124__put_character_sequenceIcNS_11char_traitsIcEEEERNS_13basic_ostreamIT_T0_EES7_PKS4_m
Ltmp9:
## %bb.5:
Ltmp10:
	movq	%rax, %rdi
	movl	%r14d, %esi
	callq	__ZNSt3__113basic_ostreamIcNS_11char_traitsIcEEElsEi
	movq	%rax, %rbx
Ltmp11:
## %bb.6:
	movq	(%rbx), %rax
	movq	-24(%rax), %rsi
	addq	%rbx, %rsi
Ltmp12:
	leaq	-536(%rbp), %rdi
	callq	__ZNKSt3__18ios_base6getlocEv
Ltmp13:
## %bb.7:
Ltmp14:
	movq	__ZNSt3__15ctypeIcE2idE@GOTPCREL(%rip), %rsi
	leaq	-536(%rbp), %rdi
	callq	__ZNKSt3__16locale9use_facetERNS0_2idE
Ltmp15:
## %bb.8:
	movq	(%rax), %rcx
Ltmp16:
	movl	$10, %esi
	movq	%rax, %rdi
	callq	*56(%rcx)
	movl	%eax, %r12d
Ltmp17:
## %bb.9:
	leaq	-536(%rbp), %rdi
	callq	__ZNSt3__16localeD1Ev
Ltmp19:
	movsbl	%r12b, %esi
	movq	%rbx, %rdi
	callq	__ZNSt3__113basic_ostreamIcNS_11char_traitsIcEEE3putEc
Ltmp20:
## %bb.10:
Ltmp21:
	movq	%rbx, %rdi
	callq	__ZNSt3__113basic_ostreamIcNS_11char_traitsIcEEE5flushEv
Ltmp22:
## %bb.11:
	movq	8(%r15), %rbx
	leaq	L_.str.2(%rip), %rsi
	movq	%rbx, %rdi
	callq	_strcmp
	testl	%eax, %eax
	je	LBB1_12
## %bb.27:
	cmpl	$3, %r14d
	jl	LBB1_45
## %bb.28:
Ltmp25:
	leaq	-192(%rbp), %rdi
	movq	%rbx, %rsi
	callq	__ZNSt3__112basic_stringIcNS_11char_traitsIcEENS_9allocatorIcEEE6assignEPKc
Ltmp26:
## %bb.29:
	movq	16(%r15), %rsi
Ltmp27:
	leaq	-160(%rbp), %rdi
	callq	__ZNSt3__112basic_stringIcNS_11char_traitsIcEENS_9allocatorIcEEE6assignEPKc
Ltmp28:
## %bb.30:
Ltmp29:
	leaq	-312(%rbp), %rdi
	callq	__ZN6Parser5parseEv
Ltmp30:
## %bb.31:
	movl	-308(%rbp), %edi
Ltmp31:
	callq	__ZN4Base10initializeEi
Ltmp32:
## %bb.32:
Ltmp33:
	leaq	-296(%rbp), %rdi
	leaq	-192(%rbp), %rsi
	callq	__ZNSt3__112basic_stringIcNS_11char_traitsIcEENS_9allocatorIcEEEC1ERKS5_
Ltmp34:
## %bb.33:
Ltmp36:
	leaq	-536(%rbp), %rdi
	leaq	-48(%rbp), %rsi
	leaq	-296(%rbp), %rdx
	callq	__ZN2IO10read_frameENSt3__112basic_stringIcNS0_11char_traitsIcEENS0_9allocatorIcEEEE
Ltmp37:
## %bb.34:
	leaq	-720(%rbp), %rdi
	leaq	-536(%rbp), %rbx
	movq	%rbx, %rsi
	callq	__ZN9ParticlesaSEOS_
	vmovupd	-352(%rbp), %xmm0
	movq	-336(%rbp), %rax
	vmovapd	%xmm0, -128(%rbp)       ## 16-byte Spill
	vmovapd	%xmm0, -224(%rbp)
	movq	%rax, -208(%rbp)
	vxorpd	%xmm0, %xmm0, %xmm0
	vmovupd	%xmm0, -352(%rbp)
	movq	$0, -336(%rbp)
	movq	%rbx, %rdi
	callq	__ZN9ParticlesD2Ev
	testb	$1, -296(%rbp)
	je	LBB1_36
## %bb.35:
	movq	-280(%rbp), %rdi
	callq	__ZdlPv
LBB1_36:
	leaq	L_str.136(%rip), %rdi
	callq	_puts
Ltmp39:
	leaq	-272(%rbp), %rdi
	leaq	-160(%rbp), %rsi
	callq	__ZNSt3__112basic_stringIcNS_11char_traitsIcEENS_9allocatorIcEEEC1ERKS5_
Ltmp40:
## %bb.37:
Ltmp42:
	leaq	-248(%rbp), %rdi
	leaq	-48(%rbp), %rsi
	leaq	-272(%rbp), %rdx
	leaq	-720(%rbp), %rcx
	callq	__ZN2IO8read_parENSt3__112basic_stringIcNS0_11char_traitsIcEENS0_9allocatorIcEEEER9Particles
Ltmp43:
## %bb.38:
	testb	$1, -272(%rbp)
	je	LBB1_40
## %bb.39:
	movq	-256(%rbp), %rdi
	callq	__ZdlPv
LBB1_40:
	leaq	-96(%rbp), %r15
	vxorpd	%xmm0, %xmm0, %xmm0
	vmovupd	%xmm0, -96(%rbp)
	movq	%r15, -104(%rbp)
	movq	-248(%rbp), %rbx
	leaq	-240(%rbp), %r12
	cmpq	%r12, %rbx
	je	LBB1_51
## %bb.41:
	leaq	-104(%rbp), %r14
	.p2align	4, 0x90
LBB1_42:                                ## =>This Loop Header: Depth=1
                                        ##     Child Loop BB1_44 Depth 2
                                        ##     Child Loop BB1_49 Depth 2
	leaq	32(%rbx), %rdx
Ltmp45:
	movq	%r14, %rdi
	movq	%r15, %rsi
	movq	%rdx, %rcx
	callq	__ZNSt3__16__treeINS_12__value_typeINS_12basic_stringIcNS_11char_traitsIcEENS_9allocatorIcEEEENS_3mapIS7_NS_6vectorIdNS5_IdEEEENS_4lessIS7_EENS5_INS_4pairIKS7_SB_EEEEEEEENS_19__map_value_compareIS7_SJ_SD_Lb1EEENS5_ISJ_EEE30__emplace_hint_unique_key_argsIS7_JRKNSE_ISF_SI_EEEEENS_15__tree_iteratorISJ_PNS_11__tree_nodeISJ_PvEElEENS_21__tree_const_iteratorISJ_SW_lEERKT_DpOT0_
Ltmp46:
## %bb.43:                              ##   in Loop: Header=BB1_42 Depth=1
	movq	8(%rbx), %rcx
	testq	%rcx, %rcx
	je	LBB1_47
	.p2align	4, 0x90
LBB1_44:                                ##   Parent Loop BB1_42 Depth=1
                                        ## =>  This Inner Loop Header: Depth=2
	movq	%rcx, %rax
	movq	(%rax), %rcx
	testq	%rcx, %rcx
	jne	LBB1_44
	jmp	LBB1_50
	.p2align	4, 0x90
LBB1_47:                                ##   in Loop: Header=BB1_42 Depth=1
	movq	16(%rbx), %rax
	cmpq	%rbx, (%rax)
	je	LBB1_50
## %bb.48:                              ##   in Loop: Header=BB1_42 Depth=1
	addq	$16, %rbx
	.p2align	4, 0x90
LBB1_49:                                ##   Parent Loop BB1_42 Depth=1
                                        ## =>  This Inner Loop Header: Depth=2
	movq	(%rbx), %rcx
	movq	16(%rcx), %rax
	cmpq	%rcx, (%rax)
	leaq	16(%rcx), %rbx
	jne	LBB1_49
LBB1_50:                                ##   in Loop: Header=BB1_42 Depth=1
	movq	%rax, %rbx
	cmpq	%r12, %rax
	jne	LBB1_42
LBB1_51:
Ltmp48:
	leaq	-720(%rbp), %rdi
	leaq	-104(%rbp), %rsi
	callq	__ZN9Particles10initializeENSt3__13mapINS0_12basic_stringIcNS0_11char_traitsIcEENS0_9allocatorIcEEEENS1_IS7_NS0_6vectorIdNS5_IdEEEENS0_4lessIS7_EENS5_INS0_4pairIKS7_SA_EEEEEESC_NS5_INSD_ISE_SH_EEEEEE
Ltmp49:
## %bb.52:
	movq	-96(%rbp), %rsi
	leaq	-104(%rbp), %rdi
	callq	__ZNSt3__16__treeINS_12__value_typeINS_12basic_stringIcNS_11char_traitsIcEENS_9allocatorIcEEEENS_3mapIS7_NS_6vectorIdNS5_IdEEEENS_4lessIS7_EENS5_INS_4pairIKS7_SB_EEEEEEEENS_19__map_value_compareIS7_SJ_SD_Lb1EEENS5_ISJ_EEE7destroyEPNS_11__tree_nodeISJ_PvEE
	movl	-664(%rbp), %edx
	movl	-308(%rbp), %esi
	movl	-304(%rbp), %ecx
Ltmp51:
	leaq	-536(%rbp), %rdi
	callq	__ZN6FramesC2Eiii
Ltmp52:
## %bb.53:
Ltmp54:
	movl	$40, %edi
	callq	__Znwm
Ltmp55:
## %bb.54:
	vmovdqa	-128(%rbp), %xmm0       ## 16-byte Reload
	vmovq	%xmm0, %rbx
	vmovupd	(%rbx), %xmm0
	vmovsd	16(%rbx), %xmm1         ## xmm1 = mem[0],zero
	movq	__ZTV11RectangularILb1ELb1ELb1EE@GOTPCREL(%rip), %rcx
	addq	$16, %rcx
	movq	%rcx, (%rax)
	vmovupd	%xmm0, 8(%rax)
	vmovsd	%xmm1, 24(%rax)
	vpermilpd	$1, %xmm0, %xmm2 ## xmm2 = xmm0[1,0]
	vmulsd	%xmm2, %xmm0, %xmm0
	vmulsd	%xmm1, %xmm0, %xmm0
	vmovsd	%xmm0, 32(%rax)
	movq	%rax, -320(%rbp)
	leaq	L_str.137(%rip), %rdi
	callq	_puts
Ltmp57:
	callq	_omp_get_wtime
	vmovsd	%xmm0, -128(%rbp)       ## 8-byte Spill
Ltmp58:
## %bb.55:
Ltmp59:
	leaq	-328(%rbp), %rdi
	leaq	-720(%rbp), %rsi
	leaq	-536(%rbp), %rdx
	callq	__ZN8MDEngineIN11integrators14VelocityVerletE16PotentialManagerIJN10potentials8harmonicENS3_16angular_harmonicENS3_2LJEEEE3runER9ParticlesR6Frames
Ltmp60:
## %bb.56:
Ltmp61:
	callq	_omp_get_wtime
Ltmp62:
## %bb.57:
	vsubsd	-128(%rbp), %xmm0, %xmm0 ## 8-byte Folded Reload
	leaq	L_.str.7(%rip), %rdi
	movb	$1, %al
	callq	_printf
Ltmp64:
	leaq	L_.str.8(%rip), %rdi
	leaq	L_.str.9(%rip), %rsi
	callq	_fopen
	movq	%rax, %r15
Ltmp65:
## %bb.58:
	movq	%rbx, -128(%rbp)        ## 8-byte Spill
	testq	%r15, %r15
	je	LBB1_64
## %bb.59:
	xorl	%ebx, %ebx
	movq	__ZN4Base15kineticEnergiesE@GOTPCREL(%rip), %r14
	movq	__ZN4Base13totalEnergiesE@GOTPCREL(%rip), %r13
	leaq	L_.str.11(%rip), %r12
	.p2align	4, 0x90
LBB1_60:                                ## =>This Inner Loop Header: Depth=1
	movq	__ZN4Base17potentialEnergiesE@GOTPCREL(%rip), %rax
	movq	(%rax), %rax
	vmovsd	(%rax,%rbx,8), %xmm0    ## xmm0 = mem[0],zero
	movq	(%r14), %rax
	vmovsd	(%rax,%rbx,8), %xmm1    ## xmm1 = mem[0],zero
	movq	(%r13), %rax
	vmovsd	(%rax,%rbx,8), %xmm2    ## xmm2 = mem[0],zero
	movb	$3, %al
	movq	%r15, %rdi
	movq	%r12, %rsi
	movl	%ebx, %edx
	callq	_fprintf
	addq	$1, %rbx
	cmpq	$1000, %rbx             ## imm = 0x3E8
	jne	LBB1_60
## %bb.61:
	movq	%r15, %rdi
	callq	_fclose
Ltmp66:
	leaq	L_.str.12(%rip), %rdi
	leaq	L_.str.9(%rip), %rsi
	callq	_fopen
	movq	%rax, %r15
Ltmp67:
## %bb.62:
	testq	%r15, %r15
	je	LBB1_63
## %bb.78:
	movq	__ZN4Base10iterationsE@GOTPCREL(%rip), %r13
	cmpl	$0, (%r13)
	jle	LBB1_81
## %bb.79:
	xorl	%ebx, %ebx
	movq	__ZN4Base12temperaturesE@GOTPCREL(%rip), %r14
	leaq	L_.str.13(%rip), %r12
	.p2align	4, 0x90
LBB1_80:                                ## =>This Inner Loop Header: Depth=1
	movq	(%r14), %rax
	vmovsd	(%rax,%rbx,8), %xmm0    ## xmm0 = mem[0],zero
	movb	$1, %al
	movq	%r15, %rdi
	movq	%r12, %rsi
	movl	%ebx, %edx
	callq	_fprintf
	addq	$1, %rbx
	movslq	(%r13), %rax
	cmpq	%rax, %rbx
	jl	LBB1_80
LBB1_81:
	movq	%r15, %rdi
	callq	_fclose
	leaq	L_str.138(%rip), %rdi
	callq	_puts
	movq	-536(%rbp), %rdi
	testq	%rdi, %rdi
	je	LBB1_83
## %bb.82:
	movq	%rdi, -528(%rbp)
	callq	__ZdlPv
LBB1_83:
	movq	-240(%rbp), %rsi
	leaq	-248(%rbp), %rdi
	callq	__ZNSt3__16__treeINS_12__value_typeINS_12basic_stringIcNS_11char_traitsIcEENS_9allocatorIcEEEENS_3mapIS7_NS_6vectorIdNS5_IdEEEENS_4lessIS7_EENS5_INS_4pairIKS7_SB_EEEEEEEENS_19__map_value_compareIS7_SJ_SD_Lb1EEENS5_ISJ_EEE7destroyEPNS_11__tree_nodeISJ_PvEE
	testb	$1, -160(%rbp)
	movq	-128(%rbp), %rbx        ## 8-byte Reload
	jne	LBB1_84
## %bb.85:
	testb	$1, -192(%rbp)
	jne	LBB1_86
LBB1_87:
	testq	%rbx, %rbx
	je	LBB1_89
LBB1_88:
	movq	%rbx, -216(%rbp)
	movq	%rbx, %rdi
	callq	__ZdlPv
LBB1_89:
	leaq	-720(%rbp), %rdi
	callq	__ZN9ParticlesD2Ev
	xorl	%eax, %eax
	addq	$680, %rsp              ## imm = 0x2A8
	popq	%rbx
	popq	%r12
	popq	%r13
	popq	%r14
	popq	%r15
	popq	%rbp
	retq
LBB1_84:
	movq	-144(%rbp), %rdi
	callq	__ZdlPv
	testb	$1, -192(%rbp)
	je	LBB1_87
LBB1_86:
	movq	-176(%rbp), %rdi
	callq	__ZdlPv
	testq	%rbx, %rbx
	jne	LBB1_88
	jmp	LBB1_89
LBB1_46:
	leaq	L_str.135(%rip), %rdi
	vzeroupper
	callq	_puts
Ltmp0:
	movl	$1, %edi
	callq	_exit
Ltmp1:
	jmp	LBB1_14
LBB1_12:
	leaq	L_str.141(%rip), %rdi
	callq	_puts
	movq	16(%r15), %r14
	vxorpd	%xmm0, %xmm0, %xmm0
	vmovapd	%xmm0, -80(%rbp)
	movq	$0, -64(%rbp)
	movq	%r14, %rdi
	callq	_strlen
	movq	%rax, %rbx
	cmpq	$-16, %rbx
	jb	LBB1_15
## %bb.13:
Ltmp81:
	leaq	-80(%rbp), %rdi
	callq	__ZNKSt3__121__basic_string_commonILb1EE20__throw_length_errorEv
Ltmp82:
	jmp	LBB1_14
LBB1_45:
	leaq	L_str.135(%rip), %rdi
	callq	_puts
Ltmp23:
	movl	$1, %edi
	callq	_exit
Ltmp24:
	jmp	LBB1_14
LBB1_64:
	leaq	L_str.158(%rip), %rdi
	callq	_puts
Ltmp71:
	movl	$1, %edi
	callq	_exit
Ltmp72:
	jmp	LBB1_14
LBB1_63:
	leaq	L_str.158(%rip), %rdi
	callq	_puts
Ltmp68:
	movl	$1, %edi
	callq	_exit
Ltmp69:
	jmp	LBB1_14
LBB1_15:
	cmpq	$23, %rbx
	jae	LBB1_16
## %bb.18:
	movl	%ebx, %eax
	addb	%al, %al
	movb	%al, -80(%rbp)
	leaq	-79(%rbp), %r15
	testq	%rbx, %rbx
	jne	LBB1_19
	jmp	LBB1_20
LBB1_16:
	movq	%rbx, %r12
	addq	$16, %r12
	andq	$-16, %r12
Ltmp74:
	movq	%r12, %rdi
	callq	__Znwm
	movq	%rax, %r15
Ltmp75:
## %bb.17:
	movq	%r15, -64(%rbp)
	orq	$1, %r12
	movq	%r12, -80(%rbp)
	movq	%rbx, -72(%rbp)
LBB1_19:
	movq	%r15, %rdi
	movq	%r14, %rsi
	movq	%rbx, %rdx
	callq	_memcpy
LBB1_20:
	movb	$0, (%r15,%rbx)
Ltmp76:
	leaq	-56(%rbp), %rdi
	leaq	-80(%rbp), %rsi
	callq	__ZN12Preprocessor10prep_waterENSt3__112basic_stringIcNS0_11char_traitsIcEENS0_9allocatorIcEEEE
Ltmp77:
## %bb.21:
	testb	$1, -80(%rbp)
	je	LBB1_23
## %bb.22:
	movq	-64(%rbp), %rdi
	callq	__ZdlPv
LBB1_23:
Ltmp79:
	movl	$1, %edi
	callq	_exit
Ltmp80:
LBB1_14:
	ud2
LBB1_25:
Ltmp78:
	movq	%rax, %rbx
	testb	$1, -80(%rbp)
	je	LBB1_94
## %bb.26:
	movq	-64(%rbp), %rdi
	callq	__ZdlPv
	testb	$1, -160(%rbp)
	je	LBB1_96
	jmp	LBB1_95
LBB1_77:
Ltmp70:
	movq	%rax, %rbx
	movq	-536(%rbp), %rdi
	testq	%rdi, %rdi
	jne	LBB1_92
	jmp	LBB1_93
LBB1_76:
Ltmp73:
	movq	%rax, %rbx
	movq	-536(%rbp), %rdi
	testq	%rdi, %rdi
	jne	LBB1_92
	jmp	LBB1_93
LBB1_75:
Ltmp56:
	movq	%rax, %rbx
	movq	-536(%rbp), %rdi
	testq	%rdi, %rdi
	jne	LBB1_92
	jmp	LBB1_93
LBB1_74:
Ltmp53:
	movq	%rax, %rbx
	jmp	LBB1_93
LBB1_73:
Ltmp50:
	jmp	LBB1_72
LBB1_69:
Ltmp44:
	movq	%rax, %rbx
	testb	$1, -272(%rbp)
	je	LBB1_94
## %bb.70:
	movq	-256(%rbp), %rdi
	callq	__ZdlPv
	testb	$1, -160(%rbp)
	je	LBB1_96
	jmp	LBB1_95
LBB1_68:
Ltmp41:
	movq	%rax, %rbx
	testb	$1, -160(%rbp)
	je	LBB1_96
	jmp	LBB1_95
LBB1_66:
Ltmp38:
	movq	%rax, %rbx
	testb	$1, -296(%rbp)
	je	LBB1_94
## %bb.67:
	movq	-280(%rbp), %rdi
	callq	__ZdlPv
	testb	$1, -160(%rbp)
	je	LBB1_96
	jmp	LBB1_95
LBB1_65:
Ltmp35:
	movq	%rax, %rbx
	testb	$1, -160(%rbp)
	je	LBB1_96
	jmp	LBB1_95
LBB1_101:
Ltmp18:
	movq	%rax, %rbx
	leaq	-536(%rbp), %rdi
	callq	__ZNSt3__16localeD1Ev
	testb	$1, -160(%rbp)
	je	LBB1_96
	jmp	LBB1_95
LBB1_90:
Ltmp63:
	movq	%rax, %rbx
	movq	-536(%rbp), %rdi
	testq	%rdi, %rdi
	je	LBB1_93
LBB1_92:
	movq	%rdi, -528(%rbp)
	callq	__ZdlPv
	jmp	LBB1_93
LBB1_24:
Ltmp83:
	movq	%rax, %rbx
	testb	$1, -160(%rbp)
	je	LBB1_96
	jmp	LBB1_95
LBB1_71:
Ltmp47:
LBB1_72:
	movq	%rax, %rbx
	movq	-96(%rbp), %rsi
	leaq	-104(%rbp), %rdi
	callq	__ZNSt3__16__treeINS_12__value_typeINS_12basic_stringIcNS_11char_traitsIcEENS_9allocatorIcEEEENS_3mapIS7_NS_6vectorIdNS5_IdEEEENS_4lessIS7_EENS5_INS_4pairIKS7_SB_EEEEEEEENS_19__map_value_compareIS7_SJ_SD_Lb1EEENS5_ISJ_EEE7destroyEPNS_11__tree_nodeISJ_PvEE
LBB1_93:
	movq	-240(%rbp), %rsi
	leaq	-248(%rbp), %rdi
	callq	__ZNSt3__16__treeINS_12__value_typeINS_12basic_stringIcNS_11char_traitsIcEENS_9allocatorIcEEEENS_3mapIS7_NS_6vectorIdNS5_IdEEEENS_4lessIS7_EENS5_INS_4pairIKS7_SB_EEEEEEEENS_19__map_value_compareIS7_SJ_SD_Lb1EEENS5_ISJ_EEE7destroyEPNS_11__tree_nodeISJ_PvEE
LBB1_94:
	testb	$1, -160(%rbp)
	jne	LBB1_95
LBB1_96:
	testb	$1, -192(%rbp)
	jne	LBB1_97
LBB1_98:
	movq	-224(%rbp), %rdi
	testq	%rdi, %rdi
	je	LBB1_100
LBB1_99:
	movq	%rdi, -216(%rbp)
	callq	__ZdlPv
LBB1_100:
	leaq	-720(%rbp), %rdi
	callq	__ZN9ParticlesD2Ev
	movq	%rbx, %rdi
	callq	__Unwind_Resume
	ud2
LBB1_95:
	movq	-144(%rbp), %rdi
	callq	__ZdlPv
	testb	$1, -192(%rbp)
	je	LBB1_98
LBB1_97:
	movq	-176(%rbp), %rdi
	callq	__ZdlPv
	movq	-224(%rbp), %rdi
	testq	%rdi, %rdi
	jne	LBB1_99
	jmp	LBB1_100
Lfunc_end0:
	.cfi_endproc
	.section	__TEXT,__gcc_except_tab
	.p2align	2
GCC_except_table1:
Lexception0:
	.byte	255                     ## @LPStart Encoding = omit
	.byte	155                     ## @TType Encoding = indirect pcrel sdata4
	.asciz	"\256\202\200"          ## @TType base offset
	.byte	3                       ## Call site Encoding = udata4
	.ascii	"\253\002"              ## Call site table length
Lset0 = Lfunc_begin0-Lfunc_begin0       ## >> Call Site 1 <<
	.long	Lset0
Lset1 = Ltmp2-Lfunc_begin0              ##   Call between Lfunc_begin0 and Ltmp2
	.long	Lset1
	.long	0                       ##     has no landing pad
	.byte	0                       ##   On action: cleanup
Lset2 = Ltmp2-Lfunc_begin0              ## >> Call Site 2 <<
	.long	Lset2
Lset3 = Ltmp13-Ltmp2                    ##   Call between Ltmp2 and Ltmp13
	.long	Lset3
Lset4 = Ltmp83-Lfunc_begin0             ##     jumps to Ltmp83
	.long	Lset4
	.byte	0                       ##   On action: cleanup
Lset5 = Ltmp14-Lfunc_begin0             ## >> Call Site 3 <<
	.long	Lset5
Lset6 = Ltmp17-Ltmp14                   ##   Call between Ltmp14 and Ltmp17
	.long	Lset6
Lset7 = Ltmp18-Lfunc_begin0             ##     jumps to Ltmp18
	.long	Lset7
	.byte	0                       ##   On action: cleanup
Lset8 = Ltmp19-Lfunc_begin0             ## >> Call Site 4 <<
	.long	Lset8
Lset9 = Ltmp32-Ltmp19                   ##   Call between Ltmp19 and Ltmp32
	.long	Lset9
Lset10 = Ltmp83-Lfunc_begin0            ##     jumps to Ltmp83
	.long	Lset10
	.byte	0                       ##   On action: cleanup
Lset11 = Ltmp33-Lfunc_begin0            ## >> Call Site 5 <<
	.long	Lset11
Lset12 = Ltmp34-Ltmp33                  ##   Call between Ltmp33 and Ltmp34
	.long	Lset12
Lset13 = Ltmp35-Lfunc_begin0            ##     jumps to Ltmp35
	.long	Lset13
	.byte	0                       ##   On action: cleanup
Lset14 = Ltmp36-Lfunc_begin0            ## >> Call Site 6 <<
	.long	Lset14
Lset15 = Ltmp37-Ltmp36                  ##   Call between Ltmp36 and Ltmp37
	.long	Lset15
Lset16 = Ltmp38-Lfunc_begin0            ##     jumps to Ltmp38
	.long	Lset16
	.byte	0                       ##   On action: cleanup
Lset17 = Ltmp39-Lfunc_begin0            ## >> Call Site 7 <<
	.long	Lset17
Lset18 = Ltmp40-Ltmp39                  ##   Call between Ltmp39 and Ltmp40
	.long	Lset18
Lset19 = Ltmp41-Lfunc_begin0            ##     jumps to Ltmp41
	.long	Lset19
	.byte	0                       ##   On action: cleanup
Lset20 = Ltmp42-Lfunc_begin0            ## >> Call Site 8 <<
	.long	Lset20
Lset21 = Ltmp43-Ltmp42                  ##   Call between Ltmp42 and Ltmp43
	.long	Lset21
Lset22 = Ltmp44-Lfunc_begin0            ##     jumps to Ltmp44
	.long	Lset22
	.byte	0                       ##   On action: cleanup
Lset23 = Ltmp45-Lfunc_begin0            ## >> Call Site 9 <<
	.long	Lset23
Lset24 = Ltmp46-Ltmp45                  ##   Call between Ltmp45 and Ltmp46
	.long	Lset24
Lset25 = Ltmp47-Lfunc_begin0            ##     jumps to Ltmp47
	.long	Lset25
	.byte	0                       ##   On action: cleanup
Lset26 = Ltmp48-Lfunc_begin0            ## >> Call Site 10 <<
	.long	Lset26
Lset27 = Ltmp49-Ltmp48                  ##   Call between Ltmp48 and Ltmp49
	.long	Lset27
Lset28 = Ltmp50-Lfunc_begin0            ##     jumps to Ltmp50
	.long	Lset28
	.byte	0                       ##   On action: cleanup
Lset29 = Ltmp51-Lfunc_begin0            ## >> Call Site 11 <<
	.long	Lset29
Lset30 = Ltmp52-Ltmp51                  ##   Call between Ltmp51 and Ltmp52
	.long	Lset30
Lset31 = Ltmp53-Lfunc_begin0            ##     jumps to Ltmp53
	.long	Lset31
	.byte	0                       ##   On action: cleanup
Lset32 = Ltmp54-Lfunc_begin0            ## >> Call Site 12 <<
	.long	Lset32
Lset33 = Ltmp55-Ltmp54                  ##   Call between Ltmp54 and Ltmp55
	.long	Lset33
Lset34 = Ltmp56-Lfunc_begin0            ##     jumps to Ltmp56
	.long	Lset34
	.byte	0                       ##   On action: cleanup
Lset35 = Ltmp57-Lfunc_begin0            ## >> Call Site 13 <<
	.long	Lset35
Lset36 = Ltmp62-Ltmp57                  ##   Call between Ltmp57 and Ltmp62
	.long	Lset36
Lset37 = Ltmp63-Lfunc_begin0            ##     jumps to Ltmp63
	.long	Lset37
	.byte	0                       ##   On action: cleanup
Lset38 = Ltmp64-Lfunc_begin0            ## >> Call Site 14 <<
	.long	Lset38
Lset39 = Ltmp65-Ltmp64                  ##   Call between Ltmp64 and Ltmp65
	.long	Lset39
Lset40 = Ltmp73-Lfunc_begin0            ##     jumps to Ltmp73
	.long	Lset40
	.byte	0                       ##   On action: cleanup
Lset41 = Ltmp66-Lfunc_begin0            ## >> Call Site 15 <<
	.long	Lset41
Lset42 = Ltmp67-Ltmp66                  ##   Call between Ltmp66 and Ltmp67
	.long	Lset42
Lset43 = Ltmp70-Lfunc_begin0            ##     jumps to Ltmp70
	.long	Lset43
	.byte	0                       ##   On action: cleanup
Lset44 = Ltmp0-Lfunc_begin0             ## >> Call Site 16 <<
	.long	Lset44
Lset45 = Ltmp24-Ltmp0                   ##   Call between Ltmp0 and Ltmp24
	.long	Lset45
Lset46 = Ltmp83-Lfunc_begin0            ##     jumps to Ltmp83
	.long	Lset46
	.byte	0                       ##   On action: cleanup
Lset47 = Ltmp71-Lfunc_begin0            ## >> Call Site 17 <<
	.long	Lset47
Lset48 = Ltmp72-Ltmp71                  ##   Call between Ltmp71 and Ltmp72
	.long	Lset48
Lset49 = Ltmp73-Lfunc_begin0            ##     jumps to Ltmp73
	.long	Lset49
	.byte	0                       ##   On action: cleanup
Lset50 = Ltmp68-Lfunc_begin0            ## >> Call Site 18 <<
	.long	Lset50
Lset51 = Ltmp69-Ltmp68                  ##   Call between Ltmp68 and Ltmp69
	.long	Lset51
Lset52 = Ltmp70-Lfunc_begin0            ##     jumps to Ltmp70
	.long	Lset52
	.byte	0                       ##   On action: cleanup
Lset53 = Ltmp74-Lfunc_begin0            ## >> Call Site 19 <<
	.long	Lset53
Lset54 = Ltmp75-Ltmp74                  ##   Call between Ltmp74 and Ltmp75
	.long	Lset54
Lset55 = Ltmp83-Lfunc_begin0            ##     jumps to Ltmp83
	.long	Lset55
	.byte	0                       ##   On action: cleanup
Lset56 = Ltmp75-Lfunc_begin0            ## >> Call Site 20 <<
	.long	Lset56
Lset57 = Ltmp76-Ltmp75                  ##   Call between Ltmp75 and Ltmp76
	.long	Lset57
	.long	0                       ##     has no landing pad
	.byte	0                       ##   On action: cleanup
Lset58 = Ltmp76-Lfunc_begin0            ## >> Call Site 21 <<
	.long	Lset58
Lset59 = Ltmp77-Ltmp76                  ##   Call between Ltmp76 and Ltmp77
	.long	Lset59
Lset60 = Ltmp78-Lfunc_begin0            ##     jumps to Ltmp78
	.long	Lset60
	.byte	0                       ##   On action: cleanup
Lset61 = Ltmp79-Lfunc_begin0            ## >> Call Site 22 <<
	.long	Lset61
Lset62 = Ltmp80-Ltmp79                  ##   Call between Ltmp79 and Ltmp80
	.long	Lset62
Lset63 = Ltmp83-Lfunc_begin0            ##     jumps to Ltmp83
	.long	Lset63
	.byte	0                       ##   On action: cleanup
Lset64 = Ltmp80-Lfunc_begin0            ## >> Call Site 23 <<
	.long	Lset64
Lset65 = Lfunc_end0-Ltmp80              ##   Call between Ltmp80 and Lfunc_end0
	.long	Lset65
	.long	0                       ##     has no landing pad
	.byte	0                       ##   On action: cleanup
	.p2align	2
                                        ## -- End function
	.section	__TEXT,__const
	.p2align	5               ## -- Begin function _ZN12Preprocessor10prep_waterENSt3__112basic_stringIcNS0_11char_traitsIcEENS0_9allocatorIcEEEE
LCPI2_0:
	.space	32
	.section	__TEXT,__literal16,16byte_literals
	.p2align	4
LCPI2_1:
	.space	16
	.section	__TEXT,__text,regular,pure_instructions
	.globl	__ZN12Preprocessor10prep_waterENSt3__112basic_stringIcNS0_11char_traitsIcEENS0_9allocatorIcEEEE
	.weak_def_can_be_hidden	__ZN12Preprocessor10prep_waterENSt3__112basic_stringIcNS0_11char_traitsIcEENS0_9allocatorIcEEEE
	.p2align	4, 0x90
__ZN12Preprocessor10prep_waterENSt3__112basic_stringIcNS0_11char_traitsIcEENS0_9allocatorIcEEEE: ## @_ZN12Preprocessor10prep_waterENSt3__112basic_stringIcNS0_11char_traitsIcEENS0_9allocatorIcEEEE
Lfunc_begin1:
	.cfi_startproc
	.cfi_personality 155, ___gxx_personality_v0
	.cfi_lsda 16, Lexception1
## %bb.0:
	pushq	%rbp
	.cfi_def_cfa_offset 16
	.cfi_offset %rbp, -16
	movq	%rsp, %rbp
	.cfi_def_cfa_register %rbp
	pushq	%r15
	pushq	%r14
	pushq	%r13
	pushq	%r12
	pushq	%rbx
	subq	$1272, %rsp             ## imm = 0x4F8
	.cfi_offset %rbx, -56
	.cfi_offset %r12, -48
	.cfi_offset %r13, -40
	.cfi_offset %r14, -32
	.cfi_offset %r15, -24
	movq	%rsi, %r12
	movq	___stack_chk_guard@GOTPCREL(%rip), %rax
	movq	(%rax), %rax
	movq	%rax, -48(%rbp)
	movl	$0, -896(%rbp)
	vxorps	%xmm0, %xmm0, %xmm0
	vmovups	%xmm0, -888(%rbp)
	movq	$0, -872(%rbp)
	movl	$0, -864(%rbp)
	vmovups	%xmm0, -856(%rbp)
	movq	$0, -840(%rbp)
	movl	$0, -936(%rbp)
	vmovups	%xmm0, -928(%rbp)
	movq	$0, -912(%rbp)
	vmovaps	%xmm0, -736(%rbp)
	movq	$0, -720(%rbp)
	vmovaps	%xmm0, -960(%rbp)
	vmovaps	%xmm0, -992(%rbp)
	movq	$0, -944(%rbp)
	movq	$0, -976(%rbp)
	leaq	-200(%rbp), %r14
	leaq	-608(%rbp), %r15
	movq	__ZTCNSt3__114basic_ifstreamIcNS_11char_traitsIcEEEE0_NS_13basic_istreamIcS2_EE@GOTPCREL(%rip), %rax
	leaq	64(%rax), %rcx
	movq	%rcx, -200(%rbp)
	addq	$24, %rax
	vmovq	%rax, %xmm0
	vmovdqa	%xmm0, -624(%rbp)
Ltmp84:
	movq	%r14, %rdi
	movq	%r15, %rsi
	callq	__ZNSt3__18ios_base4initEPv
Ltmp85:
## %bb.1:
	movq	$0, -64(%rbp)
	movl	$-1, -56(%rbp)
	movq	__ZTVNSt3__114basic_ifstreamIcNS_11char_traitsIcEEEE@GOTPCREL(%rip), %rbx
	leaq	24(%rbx), %r13
	movq	%r13, -624(%rbp)
	addq	$64, %rbx
	movq	%rbx, -200(%rbp)
Ltmp87:
	movq	%r15, %rdi
	callq	__ZNSt3__113basic_filebufIcNS_11char_traitsIcEEEC2Ev
Ltmp88:
## %bb.2:
	cmpq	$0, -488(%rbp)
	je	LBB2_4
LBB2_3:
	movq	-624(%rbp), %rax
	movq	-24(%rax), %rax
	leaq	(%rax,%rbp), %rdi
	addq	$-624, %rdi             ## imm = 0xFD90
	movl	-592(%rbp,%rax), %esi
	orl	$4, %esi
Ltmp92:
	callq	__ZNSt3__18ios_base5clearEj
Ltmp93:
	jmp	LBB2_7
LBB2_4:
	leaq	1(%r12), %rdi
	testb	$1, (%r12)
	cmovneq	16(%r12), %rdi
Ltmp90:
	leaq	L_.str.27(%rip), %rsi
	callq	_fopen
Ltmp91:
## %bb.5:
	movq	%rax, -488(%rbp)
	testq	%rax, %rax
	je	LBB2_3
## %bb.6:
	movl	$8, -216(%rbp)
LBB2_7:
	vpxor	%xmm0, %xmm0, %xmm0
	vmovdqa	%xmm0, -800(%rbp)
	vmovdqa	%xmm0, -688(%rbp)
	movq	$0, -784(%rbp)
	movq	$0, -672(%rbp)
	vmovdqa	%xmm0, -832(%rbp)
	movq	$0, -816(%rbp)
	vmovdqa	%xmm0, -656(%rbp)
	movq	$0, -640(%rbp)
Ltmp95:
	leaq	-832(%rbp), %rdi
	movl	$3, %esi
	movq	%rbx, -1016(%rbp)       ## 8-byte Spill
	movq	%r13, -1008(%rbp)       ## 8-byte Spill
	callq	__ZNSt3__16vectorIiNS_9allocatorIiEEE8__appendEm
Ltmp96:
## %bb.8:
	movq	-656(%rbp), %rax
	movq	-648(%rbp), %rcx
	subq	%rax, %rcx
	movq	%rcx, %rdx
	sarq	$2, %rdx
	cmpq	$1, %rdx
	ja	LBB2_10
## %bb.9:
	movl	$2, %esi
	subq	%rdx, %rsi
Ltmp97:
	leaq	-656(%rbp), %rdi
	callq	__ZNSt3__16vectorIiNS_9allocatorIiEEE8__appendEm
Ltmp98:
	jmp	LBB2_12
LBB2_10:
	cmpq	$8, %rcx
	je	LBB2_12
## %bb.11:
	addq	$8, %rax
	movq	%rax, -648(%rbp)
LBB2_12:
	xorl	%eax, %eax
	movq	%rax, -696(%rbp)        ## 8-byte Spill
	leaq	-624(%rbp), %r12
	leaq	-1312(%rbp), %r13
	movq	__ZTVNSt3__115basic_stringbufIcNS_11char_traitsIcEENS_9allocatorIcEEEE@GOTPCREL(%rip), %rax
	addq	$16, %rax
	movq	%rax, -752(%rbp)        ## 8-byte Spill
	movq	__ZTTNSt3__119basic_istringstreamIcNS_11char_traitsIcEENS_9allocatorIcEEEE@GOTPCREL(%rip), %rax
	addq	$8, %rax
	movq	%rax, -744(%rbp)        ## 8-byte Spill
	movq	__ZNSt3__15ctypeIcE2idE@GOTPCREL(%rip), %r14
	leaq	-960(%rbp), %r15
	jmp	LBB2_14
LBB2_13:                                ##   in Loop: Header=BB2_14 Depth=1
	addl	$1, %ecx
	movq	%rcx, -696(%rbp)        ## 8-byte Spill
	.p2align	4, 0x90
LBB2_14:                                ## =>This Inner Loop Header: Depth=1
	movq	-624(%rbp), %rax
	movq	-24(%rax), %rsi
	addq	%r12, %rsi
Ltmp100:
	movq	%r13, %rdi
	callq	__ZNKSt3__18ios_base6getlocEv
Ltmp101:
## %bb.15:                              ##   in Loop: Header=BB2_14 Depth=1
Ltmp102:
	movq	%r13, %rdi
	movq	%r14, %rsi
	callq	__ZNKSt3__16locale9use_facetERNS0_2idE
Ltmp103:
## %bb.16:                              ##   in Loop: Header=BB2_14 Depth=1
	movq	(%rax), %rcx
Ltmp104:
	movl	$10, %esi
	movq	%rax, %rdi
	callq	*56(%rcx)
	movl	%eax, %ebx
Ltmp105:
## %bb.17:                              ##   in Loop: Header=BB2_14 Depth=1
	movq	%r13, %rdi
	callq	__ZNSt3__16localeD1Ev
Ltmp107:
	movsbl	%bl, %edx
	movq	%r12, %rdi
	movq	%r15, %rsi
	callq	__ZNSt3__17getlineIcNS_11char_traitsIcEENS_9allocatorIcEEEERNS_13basic_istreamIT_T0_EES9_RNS_12basic_stringIS6_S7_T1_EES6_
Ltmp108:
## %bb.18:                              ##   in Loop: Header=BB2_14 Depth=1
	movq	(%rax), %rcx
	movq	-24(%rcx), %rcx
	testb	$5, 32(%rax,%rcx)
	jne	LBB2_156
## %bb.19:                              ##   in Loop: Header=BB2_14 Depth=1
	movzbl	-960(%rbp), %eax
	leaq	-959(%rbp), %rcx
	testb	$1, %al
	je	LBB2_21
## %bb.20:                              ##   in Loop: Header=BB2_14 Depth=1
	movq	-944(%rbp), %rcx
LBB2_21:                                ##   in Loop: Header=BB2_14 Depth=1
	cmpb	$35, (%rcx)
	je	LBB2_14
## %bb.22:                              ##   in Loop: Header=BB2_14 Depth=1
	testb	$1, %al
	je	LBB2_33
## %bb.23:                              ##   in Loop: Header=BB2_14 Depth=1
	movq	-952(%rbp), %rax
	testq	%rax, %rax
	je	LBB2_14
LBB2_24:                                ##   in Loop: Header=BB2_14 Depth=1
	movq	-696(%rbp), %rcx        ## 8-byte Reload
	cmpl	$1, %ecx
	jne	LBB2_34
## %bb.25:                              ##   in Loop: Header=BB2_14 Depth=1
	movq	__ZTCNSt3__119basic_istringstreamIcNS_11char_traitsIcEENS_9allocatorIcEEEE0_NS_13basic_istreamIcS2_EE@GOTPCREL(%rip), %rax
	movq	%rax, %rcx
	leaq	64(%rcx), %rax
	movq	%rax, -1192(%rbp)
	leaq	24(%rcx), %rax
	vmovq	%rax, %xmm0
	vmovdqa	%xmm0, -1312(%rbp)
Ltmp279:
	leaq	-1192(%rbp), %rdi
	leaq	-1296(%rbp), %rbx
	movq	%rbx, %rsi
	callq	__ZNSt3__18ios_base4initEPv
Ltmp280:
## %bb.26:                              ##   in Loop: Header=BB2_14 Depth=1
	movq	$0, -1056(%rbp)
	movl	$-1, -1048(%rbp)
	movq	__ZTVNSt3__119basic_istringstreamIcNS_11char_traitsIcEENS_9allocatorIcEEEE@GOTPCREL(%rip), %rax
	leaq	24(%rax), %rcx
	movq	%rcx, -696(%rbp)        ## 8-byte Spill
	movq	%rcx, -1312(%rbp)
	leaq	64(%rax), %rax
	movq	%rax, -768(%rbp)        ## 8-byte Spill
	movq	%rax, -1192(%rbp)
Ltmp282:
	movq	%rbx, %rdi
	callq	__ZNSt3__115basic_streambufIcNS_11char_traitsIcEEEC2Ev
Ltmp283:
## %bb.27:                              ##   in Loop: Header=BB2_14 Depth=1
	movq	-752(%rbp), %rax        ## 8-byte Reload
	movq	%rax, -1296(%rbp)
	leaq	-1192(%rbp), %rax
	vpxor	%xmm0, %xmm0, %xmm0
	vmovdqu	%ymm0, -40(%rax)
	movl	$8, -1200(%rbp)
Ltmp285:
	movq	%rbx, %rdi
	movq	%r15, %rsi
	vzeroupper
	callq	__ZNSt3__115basic_stringbufIcNS_11char_traitsIcEENS_9allocatorIcEEE3strERKNS_12basic_stringIcS2_S4_EE
Ltmp286:
## %bb.28:                              ##   in Loop: Header=BB2_14 Depth=1
Ltmp288:
	movq	%r13, %rdi
	leaq	-900(%rbp), %rsi
	callq	__ZNSt3__113basic_istreamIcNS_11char_traitsIcEEErsERi
Ltmp289:
## %bb.29:                              ##   in Loop: Header=BB2_14 Depth=1
	movq	(%rax), %rcx
	movq	-24(%rcx), %rcx
	testb	$5, 32(%rax,%rcx)
	jne	LBB2_210
## %bb.30:                              ##   in Loop: Header=BB2_14 Depth=1
	movq	-696(%rbp), %rax        ## 8-byte Reload
	movq	%rax, -1312(%rbp)
	movq	-768(%rbp), %rax        ## 8-byte Reload
	movq	%rax, -1192(%rbp)
	movq	-752(%rbp), %rax        ## 8-byte Reload
	movq	%rax, -1296(%rbp)
	testb	$1, -1232(%rbp)
	je	LBB2_32
## %bb.31:                              ##   in Loop: Header=BB2_14 Depth=1
	movq	-1216(%rbp), %rdi
	callq	__ZdlPv
LBB2_32:                                ##   in Loop: Header=BB2_14 Depth=1
	leaq	-1296(%rbp), %rdi
	callq	__ZNSt3__115basic_streambufIcNS_11char_traitsIcEEED2Ev
	movq	%r13, %rdi
	movq	-744(%rbp), %rsi        ## 8-byte Reload
	callq	__ZNSt3__113basic_istreamIcNS_11char_traitsIcEEED2Ev
	leaq	-1192(%rbp), %rdi
	callq	__ZNSt3__19basic_iosIcNS_11char_traitsIcEEED2Ev
	movl	$1, %ecx
	jmp	LBB2_13
	.p2align	4, 0x90
LBB2_33:                                ##   in Loop: Header=BB2_14 Depth=1
	shrb	%al
	movzbl	%al, %eax
	testq	%rax, %rax
	je	LBB2_14
	jmp	LBB2_24
LBB2_34:                                ##   in Loop: Header=BB2_14 Depth=1
	cmpl	$2, %ecx
	jl	LBB2_13
## %bb.35:                              ##   in Loop: Header=BB2_14 Depth=1
	movl	-900(%rbp), %eax
	addl	$1, %eax
	cmpl	%eax, %ecx
	jg	LBB2_13
## %bb.36:                              ##   in Loop: Header=BB2_14 Depth=1
	movq	__ZTCNSt3__119basic_istringstreamIcNS_11char_traitsIcEENS_9allocatorIcEEEE0_NS_13basic_istreamIcS2_EE@GOTPCREL(%rip), %rax
	movq	%rax, %rcx
	leaq	64(%rcx), %rax
	movq	%rax, -1192(%rbp)
	leaq	24(%rcx), %rax
	vmovq	%rax, %xmm0
	vmovdqa	%xmm0, -1312(%rbp)
Ltmp127:
	leaq	-1192(%rbp), %rdi
	leaq	-1296(%rbp), %rbx
	movq	%rbx, %rsi
	callq	__ZNSt3__18ios_base4initEPv
Ltmp128:
## %bb.37:                              ##   in Loop: Header=BB2_14 Depth=1
	movq	$0, -1056(%rbp)
	movl	$-1, -1048(%rbp)
	movq	__ZTVNSt3__119basic_istringstreamIcNS_11char_traitsIcEENS_9allocatorIcEEEE@GOTPCREL(%rip), %rax
	movq	%rax, %rcx
	leaq	24(%rcx), %rax
	movq	%rax, -768(%rbp)        ## 8-byte Spill
	movq	%rax, -1312(%rbp)
	leaq	64(%rcx), %rax
	movq	%rax, -1000(%rbp)       ## 8-byte Spill
	movq	%rax, -1192(%rbp)
Ltmp130:
	movq	%rbx, %rdi
	callq	__ZNSt3__115basic_streambufIcNS_11char_traitsIcEEEC2Ev
Ltmp131:
## %bb.38:                              ##   in Loop: Header=BB2_14 Depth=1
	movq	-752(%rbp), %rax        ## 8-byte Reload
	movq	%rax, -1296(%rbp)
	leaq	-1192(%rbp), %rax
	vpxor	%xmm0, %xmm0, %xmm0
	vmovdqu	%ymm0, -40(%rax)
	movl	$8, -1200(%rbp)
Ltmp133:
	movq	%rbx, %rdi
	movq	%r15, %rsi
	vzeroupper
	callq	__ZNSt3__115basic_stringbufIcNS_11char_traitsIcEENS_9allocatorIcEEE3strERKNS_12basic_stringIcS2_S4_EE
Ltmp134:
## %bb.39:                              ##   in Loop: Header=BB2_14 Depth=1
Ltmp136:
	movq	%r13, %rdi
	leaq	-992(%rbp), %rsi
	callq	__ZNSt3__1rsIcNS_11char_traitsIcEENS_9allocatorIcEEEERNS_13basic_istreamIT_T0_EES9_RNS_12basic_stringIS6_S7_T1_EE
Ltmp137:
## %bb.40:                              ##   in Loop: Header=BB2_14 Depth=1
Ltmp138:
	movq	%rax, %rdi
	leaq	-736(%rbp), %rsi
	callq	__ZNSt3__1rsIcNS_11char_traitsIcEENS_9allocatorIcEEEERNS_13basic_istreamIT_T0_EES9_RNS_12basic_stringIS6_S7_T1_EE
Ltmp139:
## %bb.41:                              ##   in Loop: Header=BB2_14 Depth=1
Ltmp140:
	movq	%rax, %rdi
	leaq	-700(%rbp), %rsi
	callq	__ZNSt3__113basic_istreamIcNS_11char_traitsIcEEErsERi
Ltmp141:
## %bb.42:                              ##   in Loop: Header=BB2_14 Depth=1
Ltmp142:
	movq	%rax, %rdi
	leaq	-1040(%rbp), %rsi
	callq	__ZNSt3__113basic_istreamIcNS_11char_traitsIcEEErsERd
Ltmp143:
## %bb.43:                              ##   in Loop: Header=BB2_14 Depth=1
Ltmp144:
	movq	%rax, %rdi
	leaq	-1032(%rbp), %rsi
	callq	__ZNSt3__113basic_istreamIcNS_11char_traitsIcEEErsERd
Ltmp145:
## %bb.44:                              ##   in Loop: Header=BB2_14 Depth=1
Ltmp146:
	movq	%rax, %rdi
	leaq	-1024(%rbp), %rsi
	callq	__ZNSt3__113basic_istreamIcNS_11char_traitsIcEEErsERd
Ltmp147:
## %bb.45:                              ##   in Loop: Header=BB2_14 Depth=1
	movq	(%rax), %rcx
	movq	-24(%rcx), %rcx
	testb	$5, 32(%rax,%rcx)
	jne	LBB2_211
## %bb.46:                              ##   in Loop: Header=BB2_14 Depth=1
	movzbl	-736(%rbp), %eax
	movl	%eax, %edx
	shrb	%dl
	andb	$1, %al
	movq	-728(%rbp), %rcx
	movzbl	%dl, %edx
	movq	%rcx, %rsi
	cmoveq	%rdx, %rsi
	cmpq	$1, %rsi
	jne	LBB2_50
## %bb.47:                              ##   in Loop: Header=BB2_14 Depth=1
Ltmp151:
	xorl	%esi, %esi
	movq	$-1, %rdx
	movl	$1, %r8d
	leaq	-736(%rbp), %rdi
	leaq	L_.str.17(%rip), %rcx
	callq	__ZNKSt3__112basic_stringIcNS_11char_traitsIcEENS_9allocatorIcEEE7compareEmmPKcm
Ltmp152:
## %bb.48:                              ##   in Loop: Header=BB2_14 Depth=1
	testl	%eax, %eax
	je	LBB2_57
## %bb.49:                              ##   in Loop: Header=BB2_14 Depth=1
	movzbl	-736(%rbp), %edx
	movq	-728(%rbp), %rcx
	movl	%edx, %eax
	andb	$1, %al
	shrb	%dl
	movzbl	%dl, %edx
LBB2_50:                                ##   in Loop: Header=BB2_14 Depth=1
	testb	%al, %al
	movq	%rcx, %rsi
	cmoveq	%rdx, %rsi
	cmpq	$2, %rsi
	jne	LBB2_54
## %bb.51:                              ##   in Loop: Header=BB2_14 Depth=1
Ltmp154:
	xorl	%esi, %esi
	movq	$-1, %rdx
	movl	$2, %r8d
	leaq	-736(%rbp), %rdi
	leaq	L_.str.18(%rip), %rcx
	callq	__ZNKSt3__112basic_stringIcNS_11char_traitsIcEENS_9allocatorIcEEE7compareEmmPKcm
Ltmp155:
## %bb.52:                              ##   in Loop: Header=BB2_14 Depth=1
	testl	%eax, %eax
	je	LBB2_57
## %bb.53:                              ##   in Loop: Header=BB2_14 Depth=1
	movzbl	-736(%rbp), %edx
	movq	-728(%rbp), %rcx
	movl	%edx, %eax
	andb	$1, %al
	shrb	%dl
	movzbl	%dl, %edx
LBB2_54:                                ##   in Loop: Header=BB2_14 Depth=1
	testb	%al, %al
	cmovneq	%rcx, %rdx
	cmpq	$2, %rdx
	jne	LBB2_153
## %bb.55:                              ##   in Loop: Header=BB2_14 Depth=1
Ltmp157:
	xorl	%esi, %esi
	movq	$-1, %rdx
	movl	$2, %r8d
	leaq	-736(%rbp), %rdi
	leaq	L_.str.19(%rip), %rcx
	callq	__ZNKSt3__112basic_stringIcNS_11char_traitsIcEENS_9allocatorIcEEE7compareEmmPKcm
Ltmp158:
## %bb.56:                              ##   in Loop: Header=BB2_14 Depth=1
	testl	%eax, %eax
	jne	LBB2_153
LBB2_57:                                ##   in Loop: Header=BB2_14 Depth=1
	movl	-700(%rbp), %eax
	movl	%eax, -896(%rbp)
Ltmp160:
	leaq	-888(%rbp), %rdi
	leaq	-736(%rbp), %rsi
	callq	__ZNSt3__112basic_stringIcNS_11char_traitsIcEENS_9allocatorIcEEEaSERKS5_
Ltmp161:
## %bb.58:                              ##   in Loop: Header=BB2_14 Depth=1
	movq	-1312(%rbp), %rax
	movq	-24(%rax), %rdi
	addq	%r13, %rdi
Ltmp162:
	xorl	%esi, %esi
	callq	__ZNSt3__18ios_base5clearEj
Ltmp163:
## %bb.59:                              ##   in Loop: Header=BB2_14 Depth=1
	movq	-624(%rbp), %rax
	movq	-24(%rax), %rsi
	addq	%r12, %rsi
Ltmp164:
	leaq	-712(%rbp), %rdi
	callq	__ZNKSt3__18ios_base6getlocEv
Ltmp165:
## %bb.60:                              ##   in Loop: Header=BB2_14 Depth=1
Ltmp166:
	leaq	-712(%rbp), %rdi
	movq	%r14, %rsi
	callq	__ZNKSt3__16locale9use_facetERNS0_2idE
Ltmp167:
## %bb.61:                              ##   in Loop: Header=BB2_14 Depth=1
	movq	(%rax), %rcx
Ltmp168:
	movl	$10, %esi
	movq	%rax, %rdi
	callq	*56(%rcx)
	movl	%eax, %ebx
Ltmp169:
## %bb.62:                              ##   in Loop: Header=BB2_14 Depth=1
	leaq	-712(%rbp), %rdi
	callq	__ZNSt3__16localeD1Ev
Ltmp171:
	movsbl	%bl, %edx
	movq	%r12, %rdi
	movq	%r15, %rsi
	callq	__ZNSt3__17getlineIcNS_11char_traitsIcEENS_9allocatorIcEEEERNS_13basic_istreamIT_T0_EES9_RNS_12basic_stringIS6_S7_T1_EES6_
Ltmp172:
## %bb.63:                              ##   in Loop: Header=BB2_14 Depth=1
Ltmp173:
	leaq	-1296(%rbp), %rdi
	movq	%r15, %rsi
	callq	__ZNSt3__115basic_stringbufIcNS_11char_traitsIcEENS_9allocatorIcEEE3strERKNS_12basic_stringIcS2_S4_EE
Ltmp174:
## %bb.64:                              ##   in Loop: Header=BB2_14 Depth=1
Ltmp175:
	movq	%r13, %rdi
	leaq	-992(%rbp), %rsi
	callq	__ZNSt3__1rsIcNS_11char_traitsIcEENS_9allocatorIcEEEERNS_13basic_istreamIT_T0_EES9_RNS_12basic_stringIS6_S7_T1_EE
Ltmp176:
## %bb.65:                              ##   in Loop: Header=BB2_14 Depth=1
Ltmp177:
	movq	%rax, %rdi
	leaq	-736(%rbp), %rsi
	callq	__ZNSt3__1rsIcNS_11char_traitsIcEENS_9allocatorIcEEEERNS_13basic_istreamIT_T0_EES9_RNS_12basic_stringIS6_S7_T1_EE
Ltmp178:
## %bb.66:                              ##   in Loop: Header=BB2_14 Depth=1
Ltmp179:
	movq	%rax, %rdi
	leaq	-700(%rbp), %rsi
	callq	__ZNSt3__113basic_istreamIcNS_11char_traitsIcEEErsERi
Ltmp180:
## %bb.67:                              ##   in Loop: Header=BB2_14 Depth=1
Ltmp181:
	movq	%rax, %rdi
	leaq	-1040(%rbp), %rsi
	callq	__ZNSt3__113basic_istreamIcNS_11char_traitsIcEEErsERd
Ltmp182:
## %bb.68:                              ##   in Loop: Header=BB2_14 Depth=1
Ltmp183:
	movq	%rax, %rdi
	leaq	-1032(%rbp), %rsi
	callq	__ZNSt3__113basic_istreamIcNS_11char_traitsIcEEErsERd
Ltmp184:
## %bb.69:                              ##   in Loop: Header=BB2_14 Depth=1
Ltmp185:
	movq	%rax, %rdi
	leaq	-1024(%rbp), %rsi
	callq	__ZNSt3__113basic_istreamIcNS_11char_traitsIcEEErsERd
Ltmp186:
## %bb.70:                              ##   in Loop: Header=BB2_14 Depth=1
	movl	-700(%rbp), %eax
	movl	%eax, -864(%rbp)
Ltmp187:
	leaq	-856(%rbp), %rdi
	leaq	-736(%rbp), %rsi
	callq	__ZNSt3__112basic_stringIcNS_11char_traitsIcEENS_9allocatorIcEEEaSERKS5_
Ltmp188:
## %bb.71:                              ##   in Loop: Header=BB2_14 Depth=1
	movq	-624(%rbp), %rax
	movq	-24(%rax), %rsi
	addq	%r12, %rsi
Ltmp189:
	leaq	-712(%rbp), %rdi
	callq	__ZNKSt3__18ios_base6getlocEv
Ltmp190:
## %bb.72:                              ##   in Loop: Header=BB2_14 Depth=1
Ltmp191:
	leaq	-712(%rbp), %rdi
	movq	%r14, %rsi
	callq	__ZNKSt3__16locale9use_facetERNS0_2idE
Ltmp192:
## %bb.73:                              ##   in Loop: Header=BB2_14 Depth=1
	movq	(%rax), %rcx
Ltmp193:
	movl	$10, %esi
	movq	%rax, %rdi
	callq	*56(%rcx)
	movl	%eax, %ebx
Ltmp194:
## %bb.74:                              ##   in Loop: Header=BB2_14 Depth=1
	leaq	-712(%rbp), %rdi
	callq	__ZNSt3__16localeD1Ev
Ltmp196:
	movsbl	%bl, %edx
	movq	%r12, %rdi
	movq	%r15, %rsi
	callq	__ZNSt3__17getlineIcNS_11char_traitsIcEENS_9allocatorIcEEEERNS_13basic_istreamIT_T0_EES9_RNS_12basic_stringIS6_S7_T1_EES6_
Ltmp197:
## %bb.75:                              ##   in Loop: Header=BB2_14 Depth=1
	movq	-1312(%rbp), %rax
	movq	-24(%rax), %rdi
	addq	%r13, %rdi
Ltmp198:
	xorl	%esi, %esi
	callq	__ZNSt3__18ios_base5clearEj
Ltmp199:
## %bb.76:                              ##   in Loop: Header=BB2_14 Depth=1
Ltmp200:
	leaq	-1296(%rbp), %rdi
	movq	%r15, %rsi
	callq	__ZNSt3__115basic_stringbufIcNS_11char_traitsIcEENS_9allocatorIcEEE3strERKNS_12basic_stringIcS2_S4_EE
Ltmp201:
## %bb.77:                              ##   in Loop: Header=BB2_14 Depth=1
Ltmp202:
	movq	%r13, %rdi
	leaq	-992(%rbp), %rsi
	callq	__ZNSt3__1rsIcNS_11char_traitsIcEENS_9allocatorIcEEEERNS_13basic_istreamIT_T0_EES9_RNS_12basic_stringIS6_S7_T1_EE
Ltmp203:
## %bb.78:                              ##   in Loop: Header=BB2_14 Depth=1
Ltmp204:
	movq	%rax, %rdi
	leaq	-736(%rbp), %rsi
	callq	__ZNSt3__1rsIcNS_11char_traitsIcEENS_9allocatorIcEEEERNS_13basic_istreamIT_T0_EES9_RNS_12basic_stringIS6_S7_T1_EE
Ltmp205:
## %bb.79:                              ##   in Loop: Header=BB2_14 Depth=1
Ltmp206:
	movq	%rax, %rdi
	leaq	-700(%rbp), %rsi
	callq	__ZNSt3__113basic_istreamIcNS_11char_traitsIcEEErsERi
Ltmp207:
## %bb.80:                              ##   in Loop: Header=BB2_14 Depth=1
Ltmp208:
	movq	%rax, %rdi
	leaq	-1040(%rbp), %rsi
	callq	__ZNSt3__113basic_istreamIcNS_11char_traitsIcEEErsERd
Ltmp209:
## %bb.81:                              ##   in Loop: Header=BB2_14 Depth=1
Ltmp210:
	movq	%rax, %rdi
	leaq	-1032(%rbp), %rsi
	callq	__ZNSt3__113basic_istreamIcNS_11char_traitsIcEEErsERd
Ltmp211:
## %bb.82:                              ##   in Loop: Header=BB2_14 Depth=1
Ltmp212:
	movq	%rax, %rdi
	leaq	-1024(%rbp), %rsi
	callq	__ZNSt3__113basic_istreamIcNS_11char_traitsIcEEErsERd
Ltmp213:
## %bb.83:                              ##   in Loop: Header=BB2_14 Depth=1
	movl	-700(%rbp), %eax
	movl	%eax, -936(%rbp)
Ltmp214:
	leaq	-928(%rbp), %rdi
	leaq	-736(%rbp), %rsi
	callq	__ZNSt3__112basic_stringIcNS_11char_traitsIcEENS_9allocatorIcEEEaSERKS5_
Ltmp215:
## %bb.84:                              ##   in Loop: Header=BB2_14 Depth=1
	movzbl	-888(%rbp), %eax
	testb	$1, %al
	je	LBB2_86
## %bb.85:                              ##   in Loop: Header=BB2_14 Depth=1
	movq	-880(%rbp), %rax
	cmpq	$1, %rax
	je	LBB2_87
	jmp	LBB2_89
LBB2_86:                                ##   in Loop: Header=BB2_14 Depth=1
	shrb	%al
	movzbl	%al, %eax
	cmpq	$1, %rax
	jne	LBB2_89
LBB2_87:                                ##   in Loop: Header=BB2_14 Depth=1
Ltmp216:
	xorl	%esi, %esi
	movq	$-1, %rdx
	movl	$1, %r8d
	leaq	-888(%rbp), %rdi
	leaq	L_.str.17(%rip), %rcx
	callq	__ZNKSt3__112basic_stringIcNS_11char_traitsIcEENS_9allocatorIcEEE7compareEmmPKcm
Ltmp217:
## %bb.88:                              ##   in Loop: Header=BB2_14 Depth=1
	testl	%eax, %eax
	je	LBB2_118
LBB2_89:                                ##   in Loop: Header=BB2_14 Depth=1
	movzbl	-856(%rbp), %eax
	testb	$1, %al
	je	LBB2_99
## %bb.90:                              ##   in Loop: Header=BB2_14 Depth=1
	movq	-848(%rbp), %rax
	cmpq	$1, %rax
	jne	LBB2_91
LBB2_100:                               ##   in Loop: Header=BB2_14 Depth=1
Ltmp219:
	xorl	%esi, %esi
	movq	$-1, %rdx
	movl	$1, %r8d
	leaq	-856(%rbp), %rdi
	leaq	L_.str.17(%rip), %rcx
	callq	__ZNKSt3__112basic_stringIcNS_11char_traitsIcEENS_9allocatorIcEEE7compareEmmPKcm
Ltmp220:
## %bb.101:                             ##   in Loop: Header=BB2_14 Depth=1
	movl	-896(%rbp), %edx
	movq	-832(%rbp), %rcx
	movl	%edx, (%rcx)
	testl	%eax, %eax
	jne	LBB2_92
## %bb.102:                             ##   in Loop: Header=BB2_14 Depth=1
	movl	-864(%rbp), %eax
	movl	%eax, 4(%rcx)
	movl	-936(%rbp), %edx
	movl	%edx, 8(%rcx)
	movq	-656(%rbp), %rcx
	movl	%eax, (%rcx)
	movl	-896(%rbp), %eax
	movl	%eax, 4(%rcx)
	movq	-680(%rbp), %rax
	cmpq	-672(%rbp), %rax
	je	LBB2_137
## %bb.103:                             ##   in Loop: Header=BB2_14 Depth=1
	vpxor	%xmm0, %xmm0, %xmm0
	vmovdqu	%xmm0, (%rax)
	movq	%rax, -632(%rbp)        ## 8-byte Spill
	movq	$0, 16(%rax)
	movq	-656(%rbp), %rsi
	movq	-648(%rbp), %rdi
	subq	%rsi, %rdi
	je	LBB2_108
## %bb.104:                             ##   in Loop: Header=BB2_14 Depth=1
	movq	%rdi, %rbx
	sarq	$2, %rbx
	movabsq	$4611686018427387903, %rax ## imm = 0x3FFFFFFFFFFFFFFF
	cmpq	%rax, %rbx
	ja	LBB2_212
## %bb.105:                             ##   in Loop: Header=BB2_14 Depth=1
Ltmp238:
	callq	__Znwm
Ltmp239:
## %bb.106:                             ##   in Loop: Header=BB2_14 Depth=1
	movq	-632(%rbp), %rcx        ## 8-byte Reload
	movq	%rax, 8(%rcx)
	movq	%rax, (%rcx)
	leaq	(%rax,%rbx,4), %rdx
	movq	%rdx, 16(%rcx)
	movq	-656(%rbp), %rsi
	movq	-648(%rbp), %rcx
	subq	%rsi, %rcx
	testq	%rcx, %rcx
	jle	LBB2_108
## %bb.107:                             ##   in Loop: Header=BB2_14 Depth=1
	movq	%rax, %rdi
	movq	%rsi, -664(%rbp)        ## 8-byte Spill
	movq	%rax, %rbx
	movq	%rcx, %rdx
	movq	%rdx, -760(%rbp)        ## 8-byte Spill
	callq	_memcpy
	movq	-664(%rbp), %rsi        ## 8-byte Reload
	addq	-760(%rbp), %rbx        ## 8-byte Folded Reload
	movq	-632(%rbp), %rax        ## 8-byte Reload
	movq	%rbx, 8(%rax)
LBB2_108:                               ##   in Loop: Header=BB2_14 Depth=1
	movq	-680(%rbp), %rcx
	addq	$24, %rcx
	movq	%rcx, -680(%rbp)
	jmp	LBB2_139
LBB2_99:                                ##   in Loop: Header=BB2_14 Depth=1
	shrb	%al
	movzbl	%al, %eax
	cmpq	$1, %rax
	je	LBB2_100
LBB2_91:                                ##   in Loop: Header=BB2_14 Depth=1
	movl	-896(%rbp), %eax
	movq	-832(%rbp), %rcx
	movl	%eax, (%rcx)
LBB2_92:                                ##   in Loop: Header=BB2_14 Depth=1
	movl	-936(%rbp), %eax
	movl	%eax, 4(%rcx)
	movl	-864(%rbp), %edx
	movl	%edx, 8(%rcx)
	movq	-656(%rbp), %rcx
	movl	%eax, (%rcx)
	movl	-896(%rbp), %eax
	movl	%eax, 4(%rcx)
	movq	-680(%rbp), %rax
	cmpq	-672(%rbp), %rax
	je	LBB2_109
## %bb.93:                              ##   in Loop: Header=BB2_14 Depth=1
	vpxor	%xmm0, %xmm0, %xmm0
	vmovdqu	%xmm0, (%rax)
	movq	$0, 16(%rax)
	movq	-656(%rbp), %rsi
	movq	-648(%rbp), %rdi
	subq	%rsi, %rdi
	je	LBB2_98
## %bb.94:                              ##   in Loop: Header=BB2_14 Depth=1
	movq	%rax, -632(%rbp)        ## 8-byte Spill
	movq	%rdi, %rbx
	sarq	$2, %rbx
	movabsq	$4611686018427387903, %rax ## imm = 0x3FFFFFFFFFFFFFFF
	cmpq	%rax, %rbx
	ja	LBB2_213
## %bb.95:                              ##   in Loop: Header=BB2_14 Depth=1
Ltmp222:
	callq	__Znwm
Ltmp223:
## %bb.96:                              ##   in Loop: Header=BB2_14 Depth=1
	movq	-632(%rbp), %rcx        ## 8-byte Reload
	movq	%rax, 8(%rcx)
	movq	%rax, (%rcx)
	leaq	(%rax,%rbx,4), %rdx
	movq	%rdx, 16(%rcx)
	movq	-656(%rbp), %rsi
	movq	-648(%rbp), %rdx
	subq	%rsi, %rdx
	testq	%rdx, %rdx
	jle	LBB2_98
## %bb.97:                              ##   in Loop: Header=BB2_14 Depth=1
	movq	%rax, %rdi
	movq	%rsi, -664(%rbp)        ## 8-byte Spill
	movq	%rax, %rbx
	movq	%rdx, -760(%rbp)        ## 8-byte Spill
	callq	_memcpy
	movq	-664(%rbp), %rsi        ## 8-byte Reload
	addq	-760(%rbp), %rbx        ## 8-byte Folded Reload
	movq	-632(%rbp), %rax        ## 8-byte Reload
	movq	%rbx, 8(%rax)
LBB2_98:                                ##   in Loop: Header=BB2_14 Depth=1
	movq	-680(%rbp), %rcx
	addq	$24, %rcx
	movq	%rcx, -680(%rbp)
	jmp	LBB2_111
LBB2_109:                               ##   in Loop: Header=BB2_14 Depth=1
Ltmp228:
	leaq	-688(%rbp), %rdi
	leaq	-656(%rbp), %rsi
	callq	__ZNSt3__16vectorINS0_IiNS_9allocatorIiEEEENS1_IS3_EEE21__push_back_slow_pathIRKS3_EEvOT_
Ltmp229:
## %bb.110:                             ##   in Loop: Header=BB2_14 Depth=1
	movq	-656(%rbp), %rsi
	movq	-680(%rbp), %rcx
LBB2_111:                               ##   in Loop: Header=BB2_14 Depth=1
	movl	-936(%rbp), %eax
	movl	%eax, (%rsi)
	movl	-864(%rbp), %eax
	movl	%eax, 4(%rsi)
	cmpq	-672(%rbp), %rcx
	je	LBB2_117
## %bb.112:                             ##   in Loop: Header=BB2_14 Depth=1
	vpxor	%xmm0, %xmm0, %xmm0
	vmovdqu	%xmm0, (%rcx)
	movq	$0, 16(%rcx)
	movq	-648(%rbp), %rdi
	subq	-656(%rbp), %rdi
	je	LBB2_134
## %bb.113:                             ##   in Loop: Header=BB2_14 Depth=1
	movq	%rcx, -632(%rbp)        ## 8-byte Spill
	movq	%rdi, %rbx
	sarq	$2, %rbx
	movabsq	$4611686018427387903, %rax ## imm = 0x3FFFFFFFFFFFFFFF
	cmpq	%rax, %rbx
	ja	LBB2_214
## %bb.114:                             ##   in Loop: Header=BB2_14 Depth=1
Ltmp230:
	callq	__Znwm
Ltmp231:
## %bb.115:                             ##   in Loop: Header=BB2_14 Depth=1
	movq	-632(%rbp), %rcx        ## 8-byte Reload
	movq	%rax, 8(%rcx)
	movq	%rax, (%rcx)
	leaq	(%rax,%rbx,4), %rdx
	movq	%rdx, 16(%rcx)
	movq	-656(%rbp), %rsi
	movq	-648(%rbp), %rdx
	subq	%rsi, %rdx
	testq	%rdx, %rdx
	jle	LBB2_134
## %bb.116:                             ##   in Loop: Header=BB2_14 Depth=1
	movq	%rax, %rdi
	movq	%rax, %rbx
	jmp	LBB2_133
LBB2_117:                               ##   in Loop: Header=BB2_14 Depth=1
Ltmp236:
	leaq	-688(%rbp), %rdi
	leaq	-656(%rbp), %rsi
	callq	__ZNSt3__16vectorINS0_IiNS_9allocatorIiEEEENS1_IS3_EEE21__push_back_slow_pathIRKS3_EEvOT_
Ltmp237:
	jmp	LBB2_145
LBB2_118:                               ##   in Loop: Header=BB2_14 Depth=1
	movl	-864(%rbp), %eax
	movq	-832(%rbp), %rcx
	movl	%eax, (%rcx)
	movl	-896(%rbp), %eax
	movl	%eax, 4(%rcx)
	movl	-936(%rbp), %edx
	movl	%edx, 8(%rcx)
	movq	-656(%rbp), %rcx
	movl	%eax, (%rcx)
	movl	-864(%rbp), %eax
	movl	%eax, 4(%rcx)
	movq	-680(%rbp), %rax
	cmpq	-672(%rbp), %rax
	je	LBB2_125
## %bb.119:                             ##   in Loop: Header=BB2_14 Depth=1
	vpxor	%xmm0, %xmm0, %xmm0
	vmovdqu	%xmm0, (%rax)
	movq	%rax, -632(%rbp)        ## 8-byte Spill
	movq	$0, 16(%rax)
	movq	-656(%rbp), %rsi
	movq	-648(%rbp), %rdi
	subq	%rsi, %rdi
	je	LBB2_124
## %bb.120:                             ##   in Loop: Header=BB2_14 Depth=1
	movq	%rdi, %rbx
	sarq	$2, %rbx
	movabsq	$4611686018427387903, %rax ## imm = 0x3FFFFFFFFFFFFFFF
	cmpq	%rax, %rbx
	ja	LBB2_215
## %bb.121:                             ##   in Loop: Header=BB2_14 Depth=1
Ltmp254:
	callq	__Znwm
Ltmp255:
## %bb.122:                             ##   in Loop: Header=BB2_14 Depth=1
	movq	-632(%rbp), %rcx        ## 8-byte Reload
	movq	%rax, 8(%rcx)
	movq	%rax, (%rcx)
	leaq	(%rax,%rbx,4), %rdx
	movq	%rdx, 16(%rcx)
	movq	-656(%rbp), %rsi
	movq	-648(%rbp), %rcx
	subq	%rsi, %rcx
	testq	%rcx, %rcx
	jle	LBB2_124
## %bb.123:                             ##   in Loop: Header=BB2_14 Depth=1
	movq	%rax, %rdi
	movq	%rsi, -664(%rbp)        ## 8-byte Spill
	movq	%rax, %rbx
	movq	%rcx, %rdx
	movq	%rdx, -760(%rbp)        ## 8-byte Spill
	callq	_memcpy
	movq	-664(%rbp), %rsi        ## 8-byte Reload
	addq	-760(%rbp), %rbx        ## 8-byte Folded Reload
	movq	-632(%rbp), %rax        ## 8-byte Reload
	movq	%rbx, 8(%rax)
LBB2_124:                               ##   in Loop: Header=BB2_14 Depth=1
	movq	-680(%rbp), %rcx
	addq	$24, %rcx
	movq	%rcx, -680(%rbp)
	jmp	LBB2_127
LBB2_125:                               ##   in Loop: Header=BB2_14 Depth=1
Ltmp260:
	leaq	-688(%rbp), %rdi
	leaq	-656(%rbp), %rsi
	callq	__ZNSt3__16vectorINS0_IiNS_9allocatorIiEEEENS1_IS3_EEE21__push_back_slow_pathIRKS3_EEvOT_
Ltmp261:
## %bb.126:                             ##   in Loop: Header=BB2_14 Depth=1
	movq	-656(%rbp), %rsi
	movq	-680(%rbp), %rcx
LBB2_127:                               ##   in Loop: Header=BB2_14 Depth=1
	movl	-896(%rbp), %eax
	movl	%eax, (%rsi)
	movl	-936(%rbp), %eax
	movl	%eax, 4(%rsi)
	cmpq	-672(%rbp), %rcx
	je	LBB2_136
## %bb.128:                             ##   in Loop: Header=BB2_14 Depth=1
	vpxor	%xmm0, %xmm0, %xmm0
	vmovdqu	%xmm0, (%rcx)
	movq	$0, 16(%rcx)
	movq	-648(%rbp), %rdi
	subq	-656(%rbp), %rdi
	je	LBB2_134
## %bb.129:                             ##   in Loop: Header=BB2_14 Depth=1
	movq	%rcx, -632(%rbp)        ## 8-byte Spill
	movq	%rdi, %rbx
	sarq	$2, %rbx
	movabsq	$4611686018427387903, %rax ## imm = 0x3FFFFFFFFFFFFFFF
	cmpq	%rax, %rbx
	ja	LBB2_216
## %bb.130:                             ##   in Loop: Header=BB2_14 Depth=1
Ltmp262:
	callq	__Znwm
Ltmp263:
	jmp	LBB2_131
LBB2_136:                               ##   in Loop: Header=BB2_14 Depth=1
Ltmp268:
	leaq	-688(%rbp), %rdi
	leaq	-656(%rbp), %rsi
	callq	__ZNSt3__16vectorINS0_IiNS_9allocatorIiEEEENS1_IS3_EEE21__push_back_slow_pathIRKS3_EEvOT_
Ltmp269:
	jmp	LBB2_145
LBB2_137:                               ##   in Loop: Header=BB2_14 Depth=1
Ltmp244:
	leaq	-688(%rbp), %rdi
	leaq	-656(%rbp), %rsi
	callq	__ZNSt3__16vectorINS0_IiNS_9allocatorIiEEEENS1_IS3_EEE21__push_back_slow_pathIRKS3_EEvOT_
Ltmp245:
## %bb.138:                             ##   in Loop: Header=BB2_14 Depth=1
	movq	-656(%rbp), %rsi
	movq	-680(%rbp), %rcx
LBB2_139:                               ##   in Loop: Header=BB2_14 Depth=1
	movl	-864(%rbp), %eax
	movl	%eax, (%rsi)
	movl	-936(%rbp), %eax
	movl	%eax, 4(%rsi)
	cmpq	-672(%rbp), %rcx
	je	LBB2_144
## %bb.140:                             ##   in Loop: Header=BB2_14 Depth=1
	vpxor	%xmm0, %xmm0, %xmm0
	vmovdqu	%xmm0, (%rcx)
	movq	$0, 16(%rcx)
	movq	-648(%rbp), %rdi
	subq	-656(%rbp), %rdi
	je	LBB2_134
## %bb.141:                             ##   in Loop: Header=BB2_14 Depth=1
	movq	%rcx, -632(%rbp)        ## 8-byte Spill
	movq	%rdi, %rbx
	sarq	$2, %rbx
	movabsq	$4611686018427387903, %rax ## imm = 0x3FFFFFFFFFFFFFFF
	cmpq	%rax, %rbx
	ja	LBB2_217
## %bb.142:                             ##   in Loop: Header=BB2_14 Depth=1
Ltmp246:
	callq	__Znwm
Ltmp247:
LBB2_131:                               ##   in Loop: Header=BB2_14 Depth=1
	movq	-632(%rbp), %rcx        ## 8-byte Reload
	movq	%rax, 8(%rcx)
	movq	%rax, (%rcx)
	leaq	(%rax,%rbx,4), %rdx
	movq	%rdx, 16(%rcx)
	movq	-656(%rbp), %rsi
	movq	-648(%rbp), %rcx
	subq	%rsi, %rcx
	testq	%rcx, %rcx
	jle	LBB2_134
## %bb.132:                             ##   in Loop: Header=BB2_14 Depth=1
	movq	%rax, %rdi
	movq	%rax, %rbx
	movq	%rcx, %rdx
LBB2_133:                               ##   in Loop: Header=BB2_14 Depth=1
	movq	%rdx, -664(%rbp)        ## 8-byte Spill
	callq	_memcpy
	addq	-664(%rbp), %rbx        ## 8-byte Folded Reload
	movq	-632(%rbp), %rax        ## 8-byte Reload
	movq	%rbx, 8(%rax)
LBB2_134:                               ##   in Loop: Header=BB2_14 Depth=1
	addq	$24, -680(%rbp)
	movq	-792(%rbp), %rax
	cmpq	-784(%rbp), %rax
	jne	LBB2_146
LBB2_135:                               ##   in Loop: Header=BB2_14 Depth=1
Ltmp276:
	leaq	-800(%rbp), %rdi
	leaq	-832(%rbp), %rsi
	callq	__ZNSt3__16vectorINS0_IiNS_9allocatorIiEEEENS1_IS3_EEE21__push_back_slow_pathIRKS3_EEvOT_
Ltmp277:
	jmp	LBB2_152
LBB2_144:                               ##   in Loop: Header=BB2_14 Depth=1
Ltmp252:
	leaq	-688(%rbp), %rdi
	leaq	-656(%rbp), %rsi
	callq	__ZNSt3__16vectorINS0_IiNS_9allocatorIiEEEENS1_IS3_EEE21__push_back_slow_pathIRKS3_EEvOT_
Ltmp253:
LBB2_145:                               ##   in Loop: Header=BB2_14 Depth=1
	movq	-792(%rbp), %rax
	cmpq	-784(%rbp), %rax
	je	LBB2_135
LBB2_146:                               ##   in Loop: Header=BB2_14 Depth=1
	vpxor	%xmm0, %xmm0, %xmm0
	vmovdqu	%xmm0, (%rax)
	movq	$0, 16(%rax)
	movq	-824(%rbp), %rdi
	subq	-832(%rbp), %rdi
	je	LBB2_151
## %bb.147:                             ##   in Loop: Header=BB2_14 Depth=1
	movq	%rax, -632(%rbp)        ## 8-byte Spill
	movq	%rdi, %rbx
	sarq	$2, %rbx
	movabsq	$4611686018427387903, %rax ## imm = 0x3FFFFFFFFFFFFFFF
	cmpq	%rax, %rbx
	ja	LBB2_218
## %bb.148:                             ##   in Loop: Header=BB2_14 Depth=1
Ltmp270:
	callq	__Znwm
Ltmp271:
## %bb.149:                             ##   in Loop: Header=BB2_14 Depth=1
	movq	-632(%rbp), %rcx        ## 8-byte Reload
	movq	%rax, 8(%rcx)
	movq	%rax, (%rcx)
	leaq	(%rax,%rbx,4), %rdx
	movq	%rdx, 16(%rcx)
	movq	-832(%rbp), %rsi
	movq	-824(%rbp), %rdx
	subq	%rsi, %rdx
	testq	%rdx, %rdx
	jle	LBB2_151
## %bb.150:                             ##   in Loop: Header=BB2_14 Depth=1
	movq	%rax, %rdi
	movq	%rax, %rbx
	movq	%rdx, -664(%rbp)        ## 8-byte Spill
	callq	_memcpy
	addq	-664(%rbp), %rbx        ## 8-byte Folded Reload
	movq	-632(%rbp), %rax        ## 8-byte Reload
	movq	%rbx, 8(%rax)
LBB2_151:                               ##   in Loop: Header=BB2_14 Depth=1
	addq	$24, -792(%rbp)
LBB2_152:                               ##   in Loop: Header=BB2_14 Depth=1
	movq	-696(%rbp), %rax        ## 8-byte Reload
	addl	$2, %eax
	movq	%rax, -696(%rbp)        ## 8-byte Spill
LBB2_153:                               ##   in Loop: Header=BB2_14 Depth=1
	movq	-768(%rbp), %rax        ## 8-byte Reload
	movq	%rax, -1312(%rbp)
	movq	-1000(%rbp), %rax       ## 8-byte Reload
	movq	%rax, -1192(%rbp)
	movq	-752(%rbp), %rax        ## 8-byte Reload
	movq	%rax, -1296(%rbp)
	testb	$1, -1232(%rbp)
	je	LBB2_155
## %bb.154:                             ##   in Loop: Header=BB2_14 Depth=1
	movq	-1216(%rbp), %rdi
	callq	__ZdlPv
LBB2_155:                               ##   in Loop: Header=BB2_14 Depth=1
	leaq	-1296(%rbp), %rdi
	callq	__ZNSt3__115basic_streambufIcNS_11char_traitsIcEEED2Ev
	movq	%r13, %rdi
	movq	-744(%rbp), %rsi        ## 8-byte Reload
	callq	__ZNSt3__113basic_istreamIcNS_11char_traitsIcEEED2Ev
	leaq	-1192(%rbp), %rdi
	callq	__ZNSt3__19basic_iosIcNS_11char_traitsIcEEED2Ev
	movq	-696(%rbp), %rcx        ## 8-byte Reload
	jmp	LBB2_13
LBB2_156:
Ltmp110:
	leaq	L_.str.20(%rip), %rdi
	leaq	L_.str.9(%rip), %rsi
	callq	_fopen
	movq	%rax, %rbx
Ltmp111:
## %bb.157:
	testq	%rbx, %rbx
	je	LBB2_220
## %bb.158:
	leaq	L_.str.21(%rip), %rdi
	movl	$6, %esi
	movl	$1, %edx
	movq	%rbx, %rcx
	callq	_fwrite
	movq	-688(%rbp), %r13
	movq	-680(%rbp), %r14
	cmpq	%r14, %r13
	movq	%rbx, -696(%rbp)        ## 8-byte Spill
	je	LBB2_166
	.p2align	4, 0x90
LBB2_159:                               ## =>This Inner Loop Header: Depth=1
	vpxor	%xmm0, %xmm0, %xmm0
	vmovdqa	%xmm0, -1312(%rbp)
	movq	$0, -1296(%rbp)
	movq	8(%r13), %rdi
	subq	(%r13), %rdi
	movq	%rdi, %rbx
	sarq	$2, %rbx
	movabsq	$4611686018427387903, %rax ## imm = 0x3FFFFFFFFFFFFFFF
	cmpq	%rax, %rbx
	ja	LBB2_209
## %bb.160:                             ##   in Loop: Header=BB2_159 Depth=1
Ltmp112:
	callq	__Znwm
	movq	%rax, %r15
Ltmp113:
## %bb.161:                             ##   in Loop: Header=BB2_159 Depth=1
	movq	%r15, -1304(%rbp)
	movq	%r15, -1312(%rbp)
	leaq	(%r15,%rbx,4), %rax
	movq	%rax, -1296(%rbp)
	movq	(%r13), %rsi
	movq	8(%r13), %r12
	subq	%rsi, %r12
	testq	%r12, %r12
	jle	LBB2_163
## %bb.162:                             ##   in Loop: Header=BB2_159 Depth=1
	movq	%r15, %rdi
	movq	%r12, %rdx
	callq	_memcpy
	movq	%r15, %rax
	addq	%r12, %rax
	movq	%rax, -1304(%rbp)
LBB2_163:                               ##   in Loop: Header=BB2_159 Depth=1
	movl	(%r15), %edx
	movl	4(%r15), %ecx
	xorl	%eax, %eax
	movq	-696(%rbp), %rbx        ## 8-byte Reload
	movq	%rbx, %rdi
	leaq	L_.str.22(%rip), %rsi
	callq	_fprintf
	movq	-1312(%rbp), %rdi
	testq	%rdi, %rdi
	je	LBB2_165
## %bb.164:                             ##   in Loop: Header=BB2_159 Depth=1
	movq	%rdi, -1304(%rbp)
	callq	__ZdlPv
LBB2_165:                               ##   in Loop: Header=BB2_159 Depth=1
	addq	$24, %r13
	cmpq	%r13, %r14
	jne	LBB2_159
LBB2_166:
	leaq	L_.str.23(%rip), %rdi
	movl	$9, %esi
	movl	$1, %edx
	movq	%rbx, %rcx
	callq	_fwrite
	movq	-800(%rbp), %r13
	movq	-792(%rbp), %r14
	cmpq	%r14, %r13
	je	LBB2_174
	.p2align	4, 0x90
LBB2_167:                               ## =>This Inner Loop Header: Depth=1
	vpxor	%xmm0, %xmm0, %xmm0
	vmovdqa	%xmm0, -1312(%rbp)
	movq	$0, -1296(%rbp)
	movq	8(%r13), %rdi
	subq	(%r13), %rdi
	movq	%rdi, %rbx
	sarq	$2, %rbx
	movabsq	$4611686018427387903, %rax ## imm = 0x3FFFFFFFFFFFFFFF
	cmpq	%rax, %rbx
	ja	LBB2_219
## %bb.168:                             ##   in Loop: Header=BB2_167 Depth=1
Ltmp118:
	callq	__Znwm
	movq	%rax, %r15
Ltmp119:
## %bb.169:                             ##   in Loop: Header=BB2_167 Depth=1
	movq	%r15, -1304(%rbp)
	movq	%r15, -1312(%rbp)
	leaq	(%r15,%rbx,4), %rax
	movq	%rax, -1296(%rbp)
	movq	(%r13), %rsi
	movq	8(%r13), %r12
	subq	%rsi, %r12
	testq	%r12, %r12
	jle	LBB2_171
## %bb.170:                             ##   in Loop: Header=BB2_167 Depth=1
	movq	%r15, %rdi
	movq	%r12, %rdx
	callq	_memcpy
	movq	%r15, %rax
	addq	%r12, %rax
	movq	%rax, -1304(%rbp)
LBB2_171:                               ##   in Loop: Header=BB2_167 Depth=1
	movl	(%r15), %edx
	movl	4(%r15), %ecx
	movl	8(%r15), %r8d
	xorl	%eax, %eax
	movq	-696(%rbp), %rbx        ## 8-byte Reload
	movq	%rbx, %rdi
	leaq	L_.str.24(%rip), %rsi
	callq	_fprintf
	movq	-1312(%rbp), %rdi
	testq	%rdi, %rdi
	je	LBB2_173
## %bb.172:                             ##   in Loop: Header=BB2_167 Depth=1
	movq	%rdi, -1304(%rbp)
	callq	__ZdlPv
LBB2_173:                               ##   in Loop: Header=BB2_167 Depth=1
	addq	$24, %r13
	cmpq	%r13, %r14
	jne	LBB2_167
LBB2_174:
	movq	%rbx, %rdi
	callq	_fclose
	leaq	L_str.142(%rip), %rdi
	callq	_puts
	movq	-656(%rbp), %rdi
	testq	%rdi, %rdi
	je	LBB2_176
## %bb.175:
	movq	%rdi, -648(%rbp)
	callq	__ZdlPv
LBB2_176:
	movq	-832(%rbp), %rdi
	testq	%rdi, %rdi
	leaq	-200(%rbp), %r15
	leaq	-608(%rbp), %r12
	movq	-1008(%rbp), %r13       ## 8-byte Reload
	je	LBB2_178
## %bb.177:
	movq	%rdi, -824(%rbp)
	callq	__ZdlPv
LBB2_178:
	movq	-688(%rbp), %r14
	testq	%r14, %r14
	je	LBB2_186
## %bb.179:
	movq	-680(%rbp), %rax
	cmpq	%r14, %rax
	je	LBB2_184
	.p2align	4, 0x90
LBB2_180:                               ## =>This Inner Loop Header: Depth=1
	leaq	-24(%rax), %rbx
	movq	-24(%rax), %rdi
	testq	%rdi, %rdi
	je	LBB2_182
## %bb.181:                             ##   in Loop: Header=BB2_180 Depth=1
	movq	%rdi, -16(%rax)
	callq	__ZdlPv
LBB2_182:                               ##   in Loop: Header=BB2_180 Depth=1
	movq	%rbx, %rax
	cmpq	%rbx, %r14
	jne	LBB2_180
## %bb.183:
	movq	-688(%rbp), %rdi
	jmp	LBB2_185
LBB2_184:
	movq	%r14, %rdi
LBB2_185:
	movq	%r14, -680(%rbp)
	callq	__ZdlPv
LBB2_186:
	movq	-800(%rbp), %r14
	testq	%r14, %r14
	je	LBB2_194
## %bb.187:
	movq	-792(%rbp), %rax
	cmpq	%r14, %rax
	je	LBB2_192
	.p2align	4, 0x90
LBB2_188:                               ## =>This Inner Loop Header: Depth=1
	leaq	-24(%rax), %rbx
	movq	-24(%rax), %rdi
	testq	%rdi, %rdi
	je	LBB2_190
## %bb.189:                             ##   in Loop: Header=BB2_188 Depth=1
	movq	%rdi, -16(%rax)
	callq	__ZdlPv
LBB2_190:                               ##   in Loop: Header=BB2_188 Depth=1
	movq	%rbx, %rax
	cmpq	%rbx, %r14
	jne	LBB2_188
## %bb.191:
	movq	-800(%rbp), %rdi
	jmp	LBB2_193
LBB2_192:
	movq	%r14, %rdi
LBB2_193:
	movq	%r14, -792(%rbp)
	callq	__ZdlPv
LBB2_194:
	movq	%r13, -624(%rbp)
	movq	-1016(%rbp), %rax       ## 8-byte Reload
	movq	%rax, -200(%rbp)
	movq	%r12, %rdi
	callq	__ZNSt3__113basic_filebufIcNS_11char_traitsIcEEED2Ev
	movq	__ZTTNSt3__114basic_ifstreamIcNS_11char_traitsIcEEEE@GOTPCREL(%rip), %rsi
	addq	$8, %rsi
	leaq	-624(%rbp), %rdi
	callq	__ZNSt3__113basic_istreamIcNS_11char_traitsIcEEED2Ev
	movq	%r15, %rdi
	callq	__ZNSt3__19basic_iosIcNS_11char_traitsIcEEED2Ev
	testb	$1, -992(%rbp)
	jne	LBB2_202
## %bb.195:
	testb	$1, -960(%rbp)
	jne	LBB2_203
LBB2_196:
	testb	$1, -736(%rbp)
	jne	LBB2_204
LBB2_197:
	testb	$1, -928(%rbp)
	jne	LBB2_205
LBB2_198:
	testb	$1, -856(%rbp)
	jne	LBB2_206
LBB2_199:
	testb	$1, -888(%rbp)
	jne	LBB2_207
LBB2_200:
	movq	___stack_chk_guard@GOTPCREL(%rip), %rax
	movq	(%rax), %rax
	cmpq	-48(%rbp), %rax
	jne	LBB2_208
LBB2_201:
	addq	$1272, %rsp             ## imm = 0x4F8
	popq	%rbx
	popq	%r12
	popq	%r13
	popq	%r14
	popq	%r15
	popq	%rbp
	retq
LBB2_202:
	movq	-976(%rbp), %rdi
	callq	__ZdlPv
	testb	$1, -960(%rbp)
	je	LBB2_196
LBB2_203:
	movq	-944(%rbp), %rdi
	callq	__ZdlPv
	testb	$1, -736(%rbp)
	je	LBB2_197
LBB2_204:
	movq	-720(%rbp), %rdi
	callq	__ZdlPv
	testb	$1, -928(%rbp)
	je	LBB2_198
LBB2_205:
	movq	-912(%rbp), %rdi
	callq	__ZdlPv
	testb	$1, -856(%rbp)
	je	LBB2_199
LBB2_206:
	movq	-840(%rbp), %rdi
	callq	__ZdlPv
	testb	$1, -888(%rbp)
	je	LBB2_200
LBB2_207:
	movq	-872(%rbp), %rdi
	callq	__ZdlPv
	movq	___stack_chk_guard@GOTPCREL(%rip), %rax
	movq	(%rax), %rax
	cmpq	-48(%rbp), %rax
	je	LBB2_201
LBB2_208:
	callq	___stack_chk_fail
LBB2_209:
Ltmp115:
	leaq	-1312(%rbp), %rdi
	callq	__ZNKSt3__120__vector_base_commonILb1EE20__throw_length_errorEv
Ltmp116:
	jmp	LBB2_221
LBB2_210:
	leaq	L_str.149(%rip), %rdi
	callq	_puts
Ltmp291:
	movl	$1, %edi
	callq	_exit
Ltmp292:
	jmp	LBB2_221
LBB2_211:
	leaq	L_str.144(%rip), %rdi
	callq	_puts
Ltmp148:
	movl	$1, %edi
	callq	_exit
Ltmp149:
	jmp	LBB2_221
LBB2_212:
Ltmp241:
	movq	-632(%rbp), %rdi        ## 8-byte Reload
	callq	__ZNKSt3__120__vector_base_commonILb1EE20__throw_length_errorEv
Ltmp242:
	jmp	LBB2_221
LBB2_213:
Ltmp225:
	movq	-632(%rbp), %rdi        ## 8-byte Reload
	callq	__ZNKSt3__120__vector_base_commonILb1EE20__throw_length_errorEv
Ltmp226:
	jmp	LBB2_221
LBB2_214:
Ltmp233:
	movq	-632(%rbp), %rdi        ## 8-byte Reload
	callq	__ZNKSt3__120__vector_base_commonILb1EE20__throw_length_errorEv
Ltmp234:
	jmp	LBB2_221
LBB2_215:
Ltmp257:
	movq	-632(%rbp), %rdi        ## 8-byte Reload
	callq	__ZNKSt3__120__vector_base_commonILb1EE20__throw_length_errorEv
Ltmp258:
	jmp	LBB2_221
LBB2_216:
Ltmp265:
	movq	-632(%rbp), %rdi        ## 8-byte Reload
	callq	__ZNKSt3__120__vector_base_commonILb1EE20__throw_length_errorEv
Ltmp266:
	jmp	LBB2_221
LBB2_217:
Ltmp249:
	movq	-632(%rbp), %rdi        ## 8-byte Reload
	callq	__ZNKSt3__120__vector_base_commonILb1EE20__throw_length_errorEv
Ltmp250:
	jmp	LBB2_221
LBB2_218:
Ltmp273:
	movq	-632(%rbp), %rdi        ## 8-byte Reload
	callq	__ZNKSt3__120__vector_base_commonILb1EE20__throw_length_errorEv
Ltmp274:
	jmp	LBB2_221
LBB2_219:
Ltmp121:
	leaq	-1312(%rbp), %rdi
	callq	__ZNKSt3__120__vector_base_commonILb1EE20__throw_length_errorEv
Ltmp122:
	jmp	LBB2_221
LBB2_220:
	leaq	L_str.158(%rip), %rdi
	callq	_puts
Ltmp124:
	movl	$1, %edi
	callq	_exit
Ltmp125:
LBB2_221:
	ud2
LBB2_222:
Ltmp123:
	movq	%rax, %r14
	movq	-1312(%rbp), %rdi
	testq	%rdi, %rdi
	jne	LBB2_233
	jmp	LBB2_284
LBB2_223:
Ltmp275:
	jmp	LBB2_247
LBB2_224:
Ltmp251:
	jmp	LBB2_247
LBB2_225:
Ltmp267:
	jmp	LBB2_247
LBB2_226:
Ltmp259:
	jmp	LBB2_247
LBB2_227:
Ltmp235:
	jmp	LBB2_247
LBB2_228:
Ltmp227:
	jmp	LBB2_247
LBB2_229:
Ltmp243:
	jmp	LBB2_247
LBB2_230:
Ltmp150:
	jmp	LBB2_271
LBB2_231:
Ltmp293:
	jmp	LBB2_261
LBB2_232:
Ltmp117:
	movq	%rax, %r14
	movq	-1312(%rbp), %rdi
	testq	%rdi, %rdi
	je	LBB2_284
LBB2_233:
	movq	%rdi, -1304(%rbp)
	callq	__ZdlPv
	jmp	LBB2_284
LBB2_234:
Ltmp126:
	jmp	LBB2_283
LBB2_235:
Ltmp89:
	movq	%r14, %rbx
	movq	%rax, %r14
	jmp	LBB2_238
LBB2_236:
Ltmp86:
	movq	%r14, %rbx
	movq	%rax, %r14
	movq	%rbx, %rdi
	callq	__ZNSt3__19basic_iosIcNS_11char_traitsIcEEED2Ev
	testb	$1, -992(%rbp)
	jne	LBB2_304
	jmp	LBB2_305
LBB2_237:
Ltmp94:
	movq	%r14, %rbx
	movq	%rax, %r14
	movq	%r15, %rdi
	callq	__ZNSt3__113basic_filebufIcNS_11char_traitsIcEEED2Ev
LBB2_238:
	movq	__ZTTNSt3__114basic_ifstreamIcNS_11char_traitsIcEEEE@GOTPCREL(%rip), %rsi
	addq	$8, %rsi
	leaq	-624(%rbp), %rdi
	callq	__ZNSt3__113basic_istreamIcNS_11char_traitsIcEEED2Ev
	movq	%rbx, %rdi
	callq	__ZNSt3__19basic_iosIcNS_11char_traitsIcEEED2Ev
	testb	$1, -992(%rbp)
	jne	LBB2_304
	jmp	LBB2_305
LBB2_239:
Ltmp99:
	jmp	LBB2_283
LBB2_240:
Ltmp248:
	jmp	LBB2_247
LBB2_241:
Ltmp240:
	jmp	LBB2_247
LBB2_242:
Ltmp264:
	jmp	LBB2_247
LBB2_243:
Ltmp256:
	jmp	LBB2_247
LBB2_244:
Ltmp232:
	jmp	LBB2_247
LBB2_245:
Ltmp224:
	jmp	LBB2_247
LBB2_246:
Ltmp272:
LBB2_247:
	movq	%rax, %r14
	movq	-632(%rbp), %rax        ## 8-byte Reload
	movq	(%rax), %rdi
	testq	%rdi, %rdi
	je	LBB2_272
## %bb.248:
	movq	-632(%rbp), %rax        ## 8-byte Reload
	movq	%rdi, 8(%rax)
	callq	__ZdlPv
	jmp	LBB2_272
LBB2_249:
Ltmp221:
	movq	%rax, %rdi
	callq	___clang_call_terminate
LBB2_250:
Ltmp218:
	movq	%rax, %rdi
	callq	___clang_call_terminate
LBB2_251:
Ltmp159:
	movq	%rax, %rdi
	callq	___clang_call_terminate
LBB2_252:
Ltmp156:
	movq	%rax, %rdi
	callq	___clang_call_terminate
LBB2_253:
Ltmp153:
	movq	%rax, %rdi
	callq	___clang_call_terminate
LBB2_254:
Ltmp195:
	jmp	LBB2_256
LBB2_255:
Ltmp170:
LBB2_256:
	movq	%rax, %r14
	leaq	-712(%rbp), %rdi
	callq	__ZNSt3__16localeD1Ev
	jmp	LBB2_272
LBB2_257:
Ltmp135:
	jmp	LBB2_263
LBB2_258:
Ltmp132:
	jmp	LBB2_267
LBB2_259:
Ltmp129:
	jmp	LBB2_269
LBB2_260:
Ltmp290:
LBB2_261:
	movq	%rax, %r14
	movq	-696(%rbp), %rax        ## 8-byte Reload
	movq	%rax, -1312(%rbp)
	movq	-768(%rbp), %rax        ## 8-byte Reload
	jmp	LBB2_273
LBB2_262:
Ltmp287:
LBB2_263:
	movq	%rax, %r14
	testb	$1, -1232(%rbp)
	leaq	-200(%rbp), %r12
	leaq	-608(%rbp), %r13
	je	LBB2_265
## %bb.264:
	movq	-1216(%rbp), %rdi
	callq	__ZdlPv
LBB2_265:
	leaq	-1296(%rbp), %rdi
	jmp	LBB2_276
LBB2_266:
Ltmp284:
LBB2_267:
	movq	%rax, %r14
	leaq	-200(%rbp), %r12
	leaq	-608(%rbp), %r13
	jmp	LBB2_277
LBB2_268:
Ltmp281:
LBB2_269:
	movq	%rax, %r14
	leaq	-200(%rbp), %r12
	leaq	-608(%rbp), %r13
	jmp	LBB2_278
LBB2_270:
Ltmp278:
LBB2_271:
	movq	%rax, %r14
LBB2_272:
	movq	-768(%rbp), %rax        ## 8-byte Reload
	movq	%rax, -1312(%rbp)
	movq	-1000(%rbp), %rax       ## 8-byte Reload
LBB2_273:
	movq	%rax, -1192(%rbp)
	movq	-752(%rbp), %rax        ## 8-byte Reload
	movq	%rax, -1296(%rbp)
	testb	$1, -1232(%rbp)
	leaq	-200(%rbp), %r12
	leaq	-608(%rbp), %r13
	leaq	-1296(%rbp), %rbx
	je	LBB2_275
## %bb.274:
	movq	-1216(%rbp), %rdi
	callq	__ZdlPv
LBB2_275:
	movq	%rbx, %rdi
LBB2_276:
	callq	__ZNSt3__115basic_streambufIcNS_11char_traitsIcEEED2Ev
LBB2_277:
	leaq	-1312(%rbp), %rdi
	movq	-744(%rbp), %rsi        ## 8-byte Reload
	callq	__ZNSt3__113basic_istreamIcNS_11char_traitsIcEEED2Ev
LBB2_278:
	leaq	-1192(%rbp), %rdi
	callq	__ZNSt3__19basic_iosIcNS_11char_traitsIcEEED2Ev
	movq	-656(%rbp), %rdi
	testq	%rdi, %rdi
	jne	LBB2_285
	jmp	LBB2_286
LBB2_279:
Ltmp120:
	jmp	LBB2_283
LBB2_280:
Ltmp114:
	jmp	LBB2_283
LBB2_281:
Ltmp106:
	movq	%rax, %r14
	leaq	-1312(%rbp), %rdi
	callq	__ZNSt3__16localeD1Ev
	jmp	LBB2_284
LBB2_282:
Ltmp109:
LBB2_283:
	movq	%rax, %r14
LBB2_284:
	leaq	-200(%rbp), %r12
	leaq	-608(%rbp), %r13
	movq	-656(%rbp), %rdi
	testq	%rdi, %rdi
	je	LBB2_286
LBB2_285:
	movq	%rdi, -648(%rbp)
	callq	__ZdlPv
LBB2_286:
	movq	-832(%rbp), %rdi
	testq	%rdi, %rdi
	je	LBB2_288
## %bb.287:
	movq	%rdi, -824(%rbp)
	callq	__ZdlPv
LBB2_288:
	movq	-688(%rbp), %r15
	testq	%r15, %r15
	je	LBB2_296
## %bb.289:
	movq	-680(%rbp), %rax
	cmpq	%r15, %rax
	je	LBB2_294
	.p2align	4, 0x90
LBB2_290:                               ## =>This Inner Loop Header: Depth=1
	leaq	-24(%rax), %rbx
	movq	-24(%rax), %rdi
	testq	%rdi, %rdi
	je	LBB2_292
## %bb.291:                             ##   in Loop: Header=BB2_290 Depth=1
	movq	%rdi, -16(%rax)
	callq	__ZdlPv
LBB2_292:                               ##   in Loop: Header=BB2_290 Depth=1
	movq	%rbx, %rax
	cmpq	%rbx, %r15
	jne	LBB2_290
## %bb.293:
	movq	-688(%rbp), %rdi
	jmp	LBB2_295
LBB2_294:
	movq	%r15, %rdi
LBB2_295:
	movq	%r15, -680(%rbp)
	callq	__ZdlPv
LBB2_296:
	movq	-800(%rbp), %r15
	testq	%r15, %r15
	je	LBB2_303
## %bb.297:
	movq	-792(%rbp), %rax
	cmpq	%r15, %rax
	je	LBB2_316
	.p2align	4, 0x90
LBB2_298:                               ## =>This Inner Loop Header: Depth=1
	leaq	-24(%rax), %rbx
	movq	-24(%rax), %rdi
	testq	%rdi, %rdi
	je	LBB2_300
## %bb.299:                             ##   in Loop: Header=BB2_298 Depth=1
	movq	%rdi, -16(%rax)
	callq	__ZdlPv
LBB2_300:                               ##   in Loop: Header=BB2_298 Depth=1
	movq	%rbx, %rax
	cmpq	%rbx, %r15
	jne	LBB2_298
## %bb.301:
	movq	-800(%rbp), %rdi
LBB2_302:
	movq	%r15, -792(%rbp)
	callq	__ZdlPv
LBB2_303:
	movq	-1008(%rbp), %rax       ## 8-byte Reload
	movq	%rax, -624(%rbp)
	movq	-1016(%rbp), %rax       ## 8-byte Reload
	movq	%rax, -200(%rbp)
	movq	%r13, %rdi
	callq	__ZNSt3__113basic_filebufIcNS_11char_traitsIcEEED2Ev
	movq	__ZTTNSt3__114basic_ifstreamIcNS_11char_traitsIcEEEE@GOTPCREL(%rip), %rsi
	addq	$8, %rsi
	leaq	-624(%rbp), %rdi
	callq	__ZNSt3__113basic_istreamIcNS_11char_traitsIcEEED2Ev
	movq	%r12, %rdi
	callq	__ZNSt3__19basic_iosIcNS_11char_traitsIcEEED2Ev
	testb	$1, -992(%rbp)
	je	LBB2_305
LBB2_304:
	movq	-976(%rbp), %rdi
	callq	__ZdlPv
LBB2_305:
	testb	$1, -960(%rbp)
	jne	LBB2_311
## %bb.306:
	testb	$1, -736(%rbp)
	jne	LBB2_312
LBB2_307:
	testb	$1, -928(%rbp)
	jne	LBB2_313
LBB2_308:
	testb	$1, -856(%rbp)
	jne	LBB2_314
LBB2_309:
	testb	$1, -888(%rbp)
	jne	LBB2_315
LBB2_310:
	movq	%r14, %rdi
	callq	__Unwind_Resume
	ud2
LBB2_311:
	movq	-944(%rbp), %rdi
	callq	__ZdlPv
	testb	$1, -736(%rbp)
	je	LBB2_307
LBB2_312:
	movq	-720(%rbp), %rdi
	callq	__ZdlPv
	testb	$1, -928(%rbp)
	je	LBB2_308
LBB2_313:
	movq	-912(%rbp), %rdi
	callq	__ZdlPv
	testb	$1, -856(%rbp)
	je	LBB2_309
LBB2_314:
	movq	-840(%rbp), %rdi
	callq	__ZdlPv
	testb	$1, -888(%rbp)
	je	LBB2_310
LBB2_315:
	movq	-872(%rbp), %rdi
	callq	__ZdlPv
	movq	%r14, %rdi
	callq	__Unwind_Resume
	ud2
LBB2_316:
	movq	%r15, %rdi
	jmp	LBB2_302
Lfunc_end1:
	.cfi_endproc
	.section	__TEXT,__gcc_except_tab
	.p2align	2
GCC_except_table2:
Lexception1:
	.byte	255                     ## @LPStart Encoding = omit
	.byte	155                     ## @TType Encoding = indirect pcrel sdata4
	.asciz	"\225\206\200\200"      ## @TType base offset
	.byte	3                       ## Call site Encoding = udata4
	.ascii	"\214\006"              ## Call site table length
Lset66 = Ltmp84-Lfunc_begin1            ## >> Call Site 1 <<
	.long	Lset66
Lset67 = Ltmp85-Ltmp84                  ##   Call between Ltmp84 and Ltmp85
	.long	Lset67
Lset68 = Ltmp86-Lfunc_begin1            ##     jumps to Ltmp86
	.long	Lset68
	.byte	0                       ##   On action: cleanup
Lset69 = Ltmp87-Lfunc_begin1            ## >> Call Site 2 <<
	.long	Lset69
Lset70 = Ltmp88-Ltmp87                  ##   Call between Ltmp87 and Ltmp88
	.long	Lset70
Lset71 = Ltmp89-Lfunc_begin1            ##     jumps to Ltmp89
	.long	Lset71
	.byte	0                       ##   On action: cleanup
Lset72 = Ltmp92-Lfunc_begin1            ## >> Call Site 3 <<
	.long	Lset72
Lset73 = Ltmp91-Ltmp92                  ##   Call between Ltmp92 and Ltmp91
	.long	Lset73
Lset74 = Ltmp94-Lfunc_begin1            ##     jumps to Ltmp94
	.long	Lset74
	.byte	0                       ##   On action: cleanup
Lset75 = Ltmp95-Lfunc_begin1            ## >> Call Site 4 <<
	.long	Lset75
Lset76 = Ltmp98-Ltmp95                  ##   Call between Ltmp95 and Ltmp98
	.long	Lset76
Lset77 = Ltmp99-Lfunc_begin1            ##     jumps to Ltmp99
	.long	Lset77
	.byte	0                       ##   On action: cleanup
Lset78 = Ltmp100-Lfunc_begin1           ## >> Call Site 5 <<
	.long	Lset78
Lset79 = Ltmp101-Ltmp100                ##   Call between Ltmp100 and Ltmp101
	.long	Lset79
Lset80 = Ltmp109-Lfunc_begin1           ##     jumps to Ltmp109
	.long	Lset80
	.byte	0                       ##   On action: cleanup
Lset81 = Ltmp102-Lfunc_begin1           ## >> Call Site 6 <<
	.long	Lset81
Lset82 = Ltmp105-Ltmp102                ##   Call between Ltmp102 and Ltmp105
	.long	Lset82
Lset83 = Ltmp106-Lfunc_begin1           ##     jumps to Ltmp106
	.long	Lset83
	.byte	0                       ##   On action: cleanup
Lset84 = Ltmp107-Lfunc_begin1           ## >> Call Site 7 <<
	.long	Lset84
Lset85 = Ltmp108-Ltmp107                ##   Call between Ltmp107 and Ltmp108
	.long	Lset85
Lset86 = Ltmp109-Lfunc_begin1           ##     jumps to Ltmp109
	.long	Lset86
	.byte	0                       ##   On action: cleanup
Lset87 = Ltmp279-Lfunc_begin1           ## >> Call Site 8 <<
	.long	Lset87
Lset88 = Ltmp280-Ltmp279                ##   Call between Ltmp279 and Ltmp280
	.long	Lset88
Lset89 = Ltmp281-Lfunc_begin1           ##     jumps to Ltmp281
	.long	Lset89
	.byte	0                       ##   On action: cleanup
Lset90 = Ltmp282-Lfunc_begin1           ## >> Call Site 9 <<
	.long	Lset90
Lset91 = Ltmp283-Ltmp282                ##   Call between Ltmp282 and Ltmp283
	.long	Lset91
Lset92 = Ltmp284-Lfunc_begin1           ##     jumps to Ltmp284
	.long	Lset92
	.byte	0                       ##   On action: cleanup
Lset93 = Ltmp285-Lfunc_begin1           ## >> Call Site 10 <<
	.long	Lset93
Lset94 = Ltmp286-Ltmp285                ##   Call between Ltmp285 and Ltmp286
	.long	Lset94
Lset95 = Ltmp287-Lfunc_begin1           ##     jumps to Ltmp287
	.long	Lset95
	.byte	0                       ##   On action: cleanup
Lset96 = Ltmp288-Lfunc_begin1           ## >> Call Site 11 <<
	.long	Lset96
Lset97 = Ltmp289-Ltmp288                ##   Call between Ltmp288 and Ltmp289
	.long	Lset97
Lset98 = Ltmp290-Lfunc_begin1           ##     jumps to Ltmp290
	.long	Lset98
	.byte	0                       ##   On action: cleanup
Lset99 = Ltmp127-Lfunc_begin1           ## >> Call Site 12 <<
	.long	Lset99
Lset100 = Ltmp128-Ltmp127               ##   Call between Ltmp127 and Ltmp128
	.long	Lset100
Lset101 = Ltmp129-Lfunc_begin1          ##     jumps to Ltmp129
	.long	Lset101
	.byte	0                       ##   On action: cleanup
Lset102 = Ltmp130-Lfunc_begin1          ## >> Call Site 13 <<
	.long	Lset102
Lset103 = Ltmp131-Ltmp130               ##   Call between Ltmp130 and Ltmp131
	.long	Lset103
Lset104 = Ltmp132-Lfunc_begin1          ##     jumps to Ltmp132
	.long	Lset104
	.byte	0                       ##   On action: cleanup
Lset105 = Ltmp133-Lfunc_begin1          ## >> Call Site 14 <<
	.long	Lset105
Lset106 = Ltmp134-Ltmp133               ##   Call between Ltmp133 and Ltmp134
	.long	Lset106
Lset107 = Ltmp135-Lfunc_begin1          ##     jumps to Ltmp135
	.long	Lset107
	.byte	0                       ##   On action: cleanup
Lset108 = Ltmp136-Lfunc_begin1          ## >> Call Site 15 <<
	.long	Lset108
Lset109 = Ltmp147-Ltmp136               ##   Call between Ltmp136 and Ltmp147
	.long	Lset109
Lset110 = Ltmp278-Lfunc_begin1          ##     jumps to Ltmp278
	.long	Lset110
	.byte	0                       ##   On action: cleanup
Lset111 = Ltmp151-Lfunc_begin1          ## >> Call Site 16 <<
	.long	Lset111
Lset112 = Ltmp152-Ltmp151               ##   Call between Ltmp151 and Ltmp152
	.long	Lset112
Lset113 = Ltmp153-Lfunc_begin1          ##     jumps to Ltmp153
	.long	Lset113
	.byte	1                       ##   On action: 1
Lset114 = Ltmp154-Lfunc_begin1          ## >> Call Site 17 <<
	.long	Lset114
Lset115 = Ltmp155-Ltmp154               ##   Call between Ltmp154 and Ltmp155
	.long	Lset115
Lset116 = Ltmp156-Lfunc_begin1          ##     jumps to Ltmp156
	.long	Lset116
	.byte	1                       ##   On action: 1
Lset117 = Ltmp157-Lfunc_begin1          ## >> Call Site 18 <<
	.long	Lset117
Lset118 = Ltmp158-Ltmp157               ##   Call between Ltmp157 and Ltmp158
	.long	Lset118
Lset119 = Ltmp159-Lfunc_begin1          ##     jumps to Ltmp159
	.long	Lset119
	.byte	1                       ##   On action: 1
Lset120 = Ltmp160-Lfunc_begin1          ## >> Call Site 19 <<
	.long	Lset120
Lset121 = Ltmp165-Ltmp160               ##   Call between Ltmp160 and Ltmp165
	.long	Lset121
Lset122 = Ltmp278-Lfunc_begin1          ##     jumps to Ltmp278
	.long	Lset122
	.byte	0                       ##   On action: cleanup
Lset123 = Ltmp166-Lfunc_begin1          ## >> Call Site 20 <<
	.long	Lset123
Lset124 = Ltmp169-Ltmp166               ##   Call between Ltmp166 and Ltmp169
	.long	Lset124
Lset125 = Ltmp170-Lfunc_begin1          ##     jumps to Ltmp170
	.long	Lset125
	.byte	0                       ##   On action: cleanup
Lset126 = Ltmp171-Lfunc_begin1          ## >> Call Site 21 <<
	.long	Lset126
Lset127 = Ltmp190-Ltmp171               ##   Call between Ltmp171 and Ltmp190
	.long	Lset127
Lset128 = Ltmp278-Lfunc_begin1          ##     jumps to Ltmp278
	.long	Lset128
	.byte	0                       ##   On action: cleanup
Lset129 = Ltmp191-Lfunc_begin1          ## >> Call Site 22 <<
	.long	Lset129
Lset130 = Ltmp194-Ltmp191               ##   Call between Ltmp191 and Ltmp194
	.long	Lset130
Lset131 = Ltmp195-Lfunc_begin1          ##     jumps to Ltmp195
	.long	Lset131
	.byte	0                       ##   On action: cleanup
Lset132 = Ltmp196-Lfunc_begin1          ## >> Call Site 23 <<
	.long	Lset132
Lset133 = Ltmp215-Ltmp196               ##   Call between Ltmp196 and Ltmp215
	.long	Lset133
Lset134 = Ltmp278-Lfunc_begin1          ##     jumps to Ltmp278
	.long	Lset134
	.byte	0                       ##   On action: cleanup
Lset135 = Ltmp216-Lfunc_begin1          ## >> Call Site 24 <<
	.long	Lset135
Lset136 = Ltmp217-Ltmp216               ##   Call between Ltmp216 and Ltmp217
	.long	Lset136
Lset137 = Ltmp218-Lfunc_begin1          ##     jumps to Ltmp218
	.long	Lset137
	.byte	1                       ##   On action: 1
Lset138 = Ltmp219-Lfunc_begin1          ## >> Call Site 25 <<
	.long	Lset138
Lset139 = Ltmp220-Ltmp219               ##   Call between Ltmp219 and Ltmp220
	.long	Lset139
Lset140 = Ltmp221-Lfunc_begin1          ##     jumps to Ltmp221
	.long	Lset140
	.byte	1                       ##   On action: 1
Lset141 = Ltmp238-Lfunc_begin1          ## >> Call Site 26 <<
	.long	Lset141
Lset142 = Ltmp239-Ltmp238               ##   Call between Ltmp238 and Ltmp239
	.long	Lset142
Lset143 = Ltmp240-Lfunc_begin1          ##     jumps to Ltmp240
	.long	Lset143
	.byte	0                       ##   On action: cleanup
Lset144 = Ltmp239-Lfunc_begin1          ## >> Call Site 27 <<
	.long	Lset144
Lset145 = Ltmp222-Ltmp239               ##   Call between Ltmp239 and Ltmp222
	.long	Lset145
	.long	0                       ##     has no landing pad
	.byte	0                       ##   On action: cleanup
Lset146 = Ltmp222-Lfunc_begin1          ## >> Call Site 28 <<
	.long	Lset146
Lset147 = Ltmp223-Ltmp222               ##   Call between Ltmp222 and Ltmp223
	.long	Lset147
Lset148 = Ltmp224-Lfunc_begin1          ##     jumps to Ltmp224
	.long	Lset148
	.byte	0                       ##   On action: cleanup
Lset149 = Ltmp223-Lfunc_begin1          ## >> Call Site 29 <<
	.long	Lset149
Lset150 = Ltmp228-Ltmp223               ##   Call between Ltmp223 and Ltmp228
	.long	Lset150
	.long	0                       ##     has no landing pad
	.byte	0                       ##   On action: cleanup
Lset151 = Ltmp228-Lfunc_begin1          ## >> Call Site 30 <<
	.long	Lset151
Lset152 = Ltmp229-Ltmp228               ##   Call between Ltmp228 and Ltmp229
	.long	Lset152
Lset153 = Ltmp278-Lfunc_begin1          ##     jumps to Ltmp278
	.long	Lset153
	.byte	0                       ##   On action: cleanup
Lset154 = Ltmp230-Lfunc_begin1          ## >> Call Site 31 <<
	.long	Lset154
Lset155 = Ltmp231-Ltmp230               ##   Call between Ltmp230 and Ltmp231
	.long	Lset155
Lset156 = Ltmp232-Lfunc_begin1          ##     jumps to Ltmp232
	.long	Lset156
	.byte	0                       ##   On action: cleanup
Lset157 = Ltmp236-Lfunc_begin1          ## >> Call Site 32 <<
	.long	Lset157
Lset158 = Ltmp237-Ltmp236               ##   Call between Ltmp236 and Ltmp237
	.long	Lset158
Lset159 = Ltmp278-Lfunc_begin1          ##     jumps to Ltmp278
	.long	Lset159
	.byte	0                       ##   On action: cleanup
Lset160 = Ltmp254-Lfunc_begin1          ## >> Call Site 33 <<
	.long	Lset160
Lset161 = Ltmp255-Ltmp254               ##   Call between Ltmp254 and Ltmp255
	.long	Lset161
Lset162 = Ltmp256-Lfunc_begin1          ##     jumps to Ltmp256
	.long	Lset162
	.byte	0                       ##   On action: cleanup
Lset163 = Ltmp255-Lfunc_begin1          ## >> Call Site 34 <<
	.long	Lset163
Lset164 = Ltmp260-Ltmp255               ##   Call between Ltmp255 and Ltmp260
	.long	Lset164
	.long	0                       ##     has no landing pad
	.byte	0                       ##   On action: cleanup
Lset165 = Ltmp260-Lfunc_begin1          ## >> Call Site 35 <<
	.long	Lset165
Lset166 = Ltmp261-Ltmp260               ##   Call between Ltmp260 and Ltmp261
	.long	Lset166
Lset167 = Ltmp278-Lfunc_begin1          ##     jumps to Ltmp278
	.long	Lset167
	.byte	0                       ##   On action: cleanup
Lset168 = Ltmp262-Lfunc_begin1          ## >> Call Site 36 <<
	.long	Lset168
Lset169 = Ltmp263-Ltmp262               ##   Call between Ltmp262 and Ltmp263
	.long	Lset169
Lset170 = Ltmp264-Lfunc_begin1          ##     jumps to Ltmp264
	.long	Lset170
	.byte	0                       ##   On action: cleanup
Lset171 = Ltmp268-Lfunc_begin1          ## >> Call Site 37 <<
	.long	Lset171
Lset172 = Ltmp245-Ltmp268               ##   Call between Ltmp268 and Ltmp245
	.long	Lset172
Lset173 = Ltmp278-Lfunc_begin1          ##     jumps to Ltmp278
	.long	Lset173
	.byte	0                       ##   On action: cleanup
Lset174 = Ltmp246-Lfunc_begin1          ## >> Call Site 38 <<
	.long	Lset174
Lset175 = Ltmp247-Ltmp246               ##   Call between Ltmp246 and Ltmp247
	.long	Lset175
Lset176 = Ltmp248-Lfunc_begin1          ##     jumps to Ltmp248
	.long	Lset176
	.byte	0                       ##   On action: cleanup
Lset177 = Ltmp247-Lfunc_begin1          ## >> Call Site 39 <<
	.long	Lset177
Lset178 = Ltmp276-Ltmp247               ##   Call between Ltmp247 and Ltmp276
	.long	Lset178
	.long	0                       ##     has no landing pad
	.byte	0                       ##   On action: cleanup
Lset179 = Ltmp276-Lfunc_begin1          ## >> Call Site 40 <<
	.long	Lset179
Lset180 = Ltmp253-Ltmp276               ##   Call between Ltmp276 and Ltmp253
	.long	Lset180
Lset181 = Ltmp278-Lfunc_begin1          ##     jumps to Ltmp278
	.long	Lset181
	.byte	0                       ##   On action: cleanup
Lset182 = Ltmp270-Lfunc_begin1          ## >> Call Site 41 <<
	.long	Lset182
Lset183 = Ltmp271-Ltmp270               ##   Call between Ltmp270 and Ltmp271
	.long	Lset183
Lset184 = Ltmp272-Lfunc_begin1          ##     jumps to Ltmp272
	.long	Lset184
	.byte	0                       ##   On action: cleanup
Lset185 = Ltmp271-Lfunc_begin1          ## >> Call Site 42 <<
	.long	Lset185
Lset186 = Ltmp110-Ltmp271               ##   Call between Ltmp271 and Ltmp110
	.long	Lset186
	.long	0                       ##     has no landing pad
	.byte	0                       ##   On action: cleanup
Lset187 = Ltmp110-Lfunc_begin1          ## >> Call Site 43 <<
	.long	Lset187
Lset188 = Ltmp111-Ltmp110               ##   Call between Ltmp110 and Ltmp111
	.long	Lset188
Lset189 = Ltmp126-Lfunc_begin1          ##     jumps to Ltmp126
	.long	Lset189
	.byte	0                       ##   On action: cleanup
Lset190 = Ltmp112-Lfunc_begin1          ## >> Call Site 44 <<
	.long	Lset190
Lset191 = Ltmp113-Ltmp112               ##   Call between Ltmp112 and Ltmp113
	.long	Lset191
Lset192 = Ltmp114-Lfunc_begin1          ##     jumps to Ltmp114
	.long	Lset192
	.byte	0                       ##   On action: cleanup
Lset193 = Ltmp113-Lfunc_begin1          ## >> Call Site 45 <<
	.long	Lset193
Lset194 = Ltmp118-Ltmp113               ##   Call between Ltmp113 and Ltmp118
	.long	Lset194
	.long	0                       ##     has no landing pad
	.byte	0                       ##   On action: cleanup
Lset195 = Ltmp118-Lfunc_begin1          ## >> Call Site 46 <<
	.long	Lset195
Lset196 = Ltmp119-Ltmp118               ##   Call between Ltmp118 and Ltmp119
	.long	Lset196
Lset197 = Ltmp120-Lfunc_begin1          ##     jumps to Ltmp120
	.long	Lset197
	.byte	0                       ##   On action: cleanup
Lset198 = Ltmp119-Lfunc_begin1          ## >> Call Site 47 <<
	.long	Lset198
Lset199 = Ltmp115-Ltmp119               ##   Call between Ltmp119 and Ltmp115
	.long	Lset199
	.long	0                       ##     has no landing pad
	.byte	0                       ##   On action: cleanup
Lset200 = Ltmp115-Lfunc_begin1          ## >> Call Site 48 <<
	.long	Lset200
Lset201 = Ltmp116-Ltmp115               ##   Call between Ltmp115 and Ltmp116
	.long	Lset201
Lset202 = Ltmp117-Lfunc_begin1          ##     jumps to Ltmp117
	.long	Lset202
	.byte	0                       ##   On action: cleanup
Lset203 = Ltmp291-Lfunc_begin1          ## >> Call Site 49 <<
	.long	Lset203
Lset204 = Ltmp292-Ltmp291               ##   Call between Ltmp291 and Ltmp292
	.long	Lset204
Lset205 = Ltmp293-Lfunc_begin1          ##     jumps to Ltmp293
	.long	Lset205
	.byte	0                       ##   On action: cleanup
Lset206 = Ltmp148-Lfunc_begin1          ## >> Call Site 50 <<
	.long	Lset206
Lset207 = Ltmp149-Ltmp148               ##   Call between Ltmp148 and Ltmp149
	.long	Lset207
Lset208 = Ltmp150-Lfunc_begin1          ##     jumps to Ltmp150
	.long	Lset208
	.byte	0                       ##   On action: cleanup
Lset209 = Ltmp241-Lfunc_begin1          ## >> Call Site 51 <<
	.long	Lset209
Lset210 = Ltmp242-Ltmp241               ##   Call between Ltmp241 and Ltmp242
	.long	Lset210
Lset211 = Ltmp243-Lfunc_begin1          ##     jumps to Ltmp243
	.long	Lset211
	.byte	0                       ##   On action: cleanup
Lset212 = Ltmp225-Lfunc_begin1          ## >> Call Site 52 <<
	.long	Lset212
Lset213 = Ltmp226-Ltmp225               ##   Call between Ltmp225 and Ltmp226
	.long	Lset213
Lset214 = Ltmp227-Lfunc_begin1          ##     jumps to Ltmp227
	.long	Lset214
	.byte	0                       ##   On action: cleanup
Lset215 = Ltmp233-Lfunc_begin1          ## >> Call Site 53 <<
	.long	Lset215
Lset216 = Ltmp234-Ltmp233               ##   Call between Ltmp233 and Ltmp234
	.long	Lset216
Lset217 = Ltmp235-Lfunc_begin1          ##     jumps to Ltmp235
	.long	Lset217
	.byte	0                       ##   On action: cleanup
Lset218 = Ltmp257-Lfunc_begin1          ## >> Call Site 54 <<
	.long	Lset218
Lset219 = Ltmp258-Ltmp257               ##   Call between Ltmp257 and Ltmp258
	.long	Lset219
Lset220 = Ltmp259-Lfunc_begin1          ##     jumps to Ltmp259
	.long	Lset220
	.byte	0                       ##   On action: cleanup
Lset221 = Ltmp265-Lfunc_begin1          ## >> Call Site 55 <<
	.long	Lset221
Lset222 = Ltmp266-Ltmp265               ##   Call between Ltmp265 and Ltmp266
	.long	Lset222
Lset223 = Ltmp267-Lfunc_begin1          ##     jumps to Ltmp267
	.long	Lset223
	.byte	0                       ##   On action: cleanup
Lset224 = Ltmp249-Lfunc_begin1          ## >> Call Site 56 <<
	.long	Lset224
Lset225 = Ltmp250-Ltmp249               ##   Call between Ltmp249 and Ltmp250
	.long	Lset225
Lset226 = Ltmp251-Lfunc_begin1          ##     jumps to Ltmp251
	.long	Lset226
	.byte	0                       ##   On action: cleanup
Lset227 = Ltmp273-Lfunc_begin1          ## >> Call Site 57 <<
	.long	Lset227
Lset228 = Ltmp274-Ltmp273               ##   Call between Ltmp273 and Ltmp274
	.long	Lset228
Lset229 = Ltmp275-Lfunc_begin1          ##     jumps to Ltmp275
	.long	Lset229
	.byte	0                       ##   On action: cleanup
Lset230 = Ltmp121-Lfunc_begin1          ## >> Call Site 58 <<
	.long	Lset230
Lset231 = Ltmp122-Ltmp121               ##   Call between Ltmp121 and Ltmp122
	.long	Lset231
Lset232 = Ltmp123-Lfunc_begin1          ##     jumps to Ltmp123
	.long	Lset232
	.byte	0                       ##   On action: cleanup
Lset233 = Ltmp124-Lfunc_begin1          ## >> Call Site 59 <<
	.long	Lset233
Lset234 = Ltmp125-Ltmp124               ##   Call between Ltmp124 and Ltmp125
	.long	Lset234
Lset235 = Ltmp126-Lfunc_begin1          ##     jumps to Ltmp126
	.long	Lset235
	.byte	0                       ##   On action: cleanup
Lset236 = Ltmp125-Lfunc_begin1          ## >> Call Site 60 <<
	.long	Lset236
Lset237 = Lfunc_end1-Ltmp125            ##   Call between Ltmp125 and Lfunc_end1
	.long	Lset237
	.long	0                       ##     has no landing pad
	.byte	0                       ##   On action: cleanup
	.byte	1                       ## >> Action Record 1 <<
                                        ##   Catch TypeInfo 1
	.byte	0                       ##   No further actions
                                        ## >> Catch TypeInfos <<
	.long	0                       ## TypeInfo 1
	.p2align	2
                                        ## -- End function
	.section	__TEXT,__const
	.p2align	5               ## -- Begin function _ZN6Parser5parseEv
LCPI3_0:
	.space	32
	.section	__TEXT,__text,regular,pure_instructions
	.globl	__ZN6Parser5parseEv
	.weak_def_can_be_hidden	__ZN6Parser5parseEv
	.p2align	4, 0x90
__ZN6Parser5parseEv:                    ## @_ZN6Parser5parseEv
Lfunc_begin2:
	.cfi_startproc
	.cfi_personality 155, ___gxx_personality_v0
	.cfi_lsda 16, Lexception2
## %bb.0:
	pushq	%rbp
	.cfi_def_cfa_offset 16
	.cfi_offset %rbp, -16
	movq	%rsp, %rbp
	.cfi_def_cfa_register %rbp
	pushq	%r15
	pushq	%r14
	pushq	%r13
	pushq	%r12
	pushq	%rbx
	subq	$1048, %rsp             ## imm = 0x418
	.cfi_offset %rbx, -56
	.cfi_offset %r12, -48
	.cfi_offset %r13, -40
	.cfi_offset %r14, -32
	.cfi_offset %r15, -24
	movq	___stack_chk_guard@GOTPCREL(%rip), %rax
	movq	(%rax), %rax
	movq	%rax, -48(%rbp)
	vxorps	%xmm0, %xmm0, %xmm0
	vmovaps	%xmm0, -736(%rbp)
	movq	%rdi, -680(%rbp)        ## 8-byte Spill
	movq	$0, -720(%rbp)
	movb	$18, -736(%rbp)
	movabsq	$7867339301450575715, %rax ## imm = 0x6D2E6769666E6F63
	movq	%rax, -735(%rbp)
	movw	$111, -727(%rbp)
	vmovaps	%xmm0, -656(%rbp)
	vmovaps	%xmm0, -784(%rbp)
	movq	$0, -640(%rbp)
	movq	$0, -768(%rbp)
	leaq	-200(%rbp), %r14
	leaq	-608(%rbp), %r12
	movq	__ZTCNSt3__114basic_ifstreamIcNS_11char_traitsIcEEEE0_NS_13basic_istreamIcS2_EE@GOTPCREL(%rip), %rax
	leaq	64(%rax), %rcx
	movq	%rcx, -200(%rbp)
	addq	$24, %rax
	vmovq	%rax, %xmm0
	vmovdqa	%xmm0, -624(%rbp)
Ltmp294:
	movq	%r14, %rdi
	movq	%r12, %rsi
	callq	__ZNSt3__18ios_base4initEPv
Ltmp295:
## %bb.1:
	movq	$0, -64(%rbp)
	movl	$-1, -56(%rbp)
	movq	__ZTVNSt3__114basic_ifstreamIcNS_11char_traitsIcEEEE@GOTPCREL(%rip), %rbx
	leaq	24(%rbx), %r15
	movq	%r15, -624(%rbp)
	addq	$64, %rbx
	movq	%rbx, -200(%rbp)
Ltmp297:
	movq	%r12, %rdi
	callq	__ZNSt3__113basic_filebufIcNS_11char_traitsIcEEEC2Ev
Ltmp298:
## %bb.2:
	cmpq	$0, -488(%rbp)
	je	LBB3_3
LBB3_11:
	movq	-624(%rbp), %rax
	movq	-24(%rax), %rax
	leaq	(%rax,%rbp), %rdi
	addq	$-624, %rdi             ## imm = 0xFD90
	movl	-592(%rbp,%rax), %esi
	orl	$4, %esi
Ltmp302:
	callq	__ZNSt3__18ios_base5clearEj
Ltmp303:
	jmp	LBB3_12
LBB3_3:
	testb	$1, -736(%rbp)
	je	LBB3_4
## %bb.5:
	movq	-720(%rbp), %rdi
	jmp	LBB3_6
LBB3_4:
	leaq	-735(%rbp), %rdi
LBB3_6:
Ltmp300:
	leaq	L_.str.27(%rip), %rsi
	callq	_fopen
Ltmp301:
## %bb.7:
	movq	%rax, -488(%rbp)
	testq	%rax, %rax
	je	LBB3_11
## %bb.8:
	movl	$8, -216(%rbp)
LBB3_12:
	movq	%r15, -752(%rbp)        ## 8-byte Spill
	movq	%rbx, -672(%rbp)        ## 8-byte Spill
	leaq	-952(%rbp), %r13
	leaq	-655(%rbp), %rax
	movq	%rax, -744(%rbp)        ## 8-byte Spill
	leaq	-624(%rbp), %r15
	leaq	-1072(%rbp), %r12
	movq	__ZTCNSt3__119basic_istringstreamIcNS_11char_traitsIcEENS_9allocatorIcEEEE0_NS_13basic_istreamIcS2_EE@GOTPCREL(%rip), %rax
	leaq	64(%rax), %rcx
	movq	%rcx, -792(%rbp)        ## 8-byte Spill
	addq	$24, %rax
	vmovq	%rax, %xmm0
	vmovdqa	%xmm0, -1088(%rbp)      ## 16-byte Spill
	movq	__ZTVNSt3__119basic_istringstreamIcNS_11char_traitsIcEENS_9allocatorIcEEEE@GOTPCREL(%rip), %rcx
	leaq	24(%rcx), %rax
	movq	%rax, -712(%rbp)        ## 8-byte Spill
	addq	$64, %rcx
	movq	%rcx, -704(%rbp)        ## 8-byte Spill
	movq	__ZTVNSt3__115basic_stringbufIcNS_11char_traitsIcEENS_9allocatorIcEEEE@GOTPCREL(%rip), %rax
	addq	$16, %rax
	movq	%rax, -696(%rbp)        ## 8-byte Spill
	movq	__ZTTNSt3__119basic_istringstreamIcNS_11char_traitsIcEENS_9allocatorIcEEEE@GOTPCREL(%rip), %rax
	addq	$8, %rax
	movq	%rax, -688(%rbp)        ## 8-byte Spill
	jmp	LBB3_13
	.p2align	4, 0x90
LBB3_109:                               ##   in Loop: Header=BB3_13 Depth=1
	movq	%rbx, %rdi
	callq	__ZNSt3__115basic_streambufIcNS_11char_traitsIcEEED2Ev
	movq	%r12, %rdi
	movq	-688(%rbp), %rsi        ## 8-byte Reload
	callq	__ZNSt3__113basic_istreamIcNS_11char_traitsIcEEED2Ev
	movq	%r13, %rdi
	callq	__ZNSt3__19basic_iosIcNS_11char_traitsIcEEED2Ev
LBB3_13:                                ## =>This Inner Loop Header: Depth=1
	movq	-624(%rbp), %rax
	movq	-24(%rax), %rsi
	addq	%r15, %rsi
Ltmp305:
	movq	%r12, %rdi
	callq	__ZNKSt3__18ios_base6getlocEv
Ltmp306:
## %bb.14:                              ##   in Loop: Header=BB3_13 Depth=1
Ltmp307:
	movq	%r13, %r14
	movq	%r12, %rdi
	movq	__ZNSt3__15ctypeIcE2idE@GOTPCREL(%rip), %rsi
	callq	__ZNKSt3__16locale9use_facetERNS0_2idE
Ltmp308:
## %bb.15:                              ##   in Loop: Header=BB3_13 Depth=1
	movq	(%rax), %rcx
Ltmp309:
	movl	$10, %esi
	movq	%rax, %rdi
	callq	*56(%rcx)
	movl	%eax, %r13d
Ltmp310:
## %bb.16:                              ##   in Loop: Header=BB3_13 Depth=1
	movq	%r12, %rdi
	callq	__ZNSt3__16localeD1Ev
Ltmp312:
	movsbl	%r13b, %edx
	movq	%r15, %rdi
	leaq	-784(%rbp), %rsi
	callq	__ZNSt3__17getlineIcNS_11char_traitsIcEENS_9allocatorIcEEEERNS_13basic_istreamIT_T0_EES9_RNS_12basic_stringIS6_S7_T1_EES6_
Ltmp313:
	movq	%r14, %r13
## %bb.17:                              ##   in Loop: Header=BB3_13 Depth=1
	movq	(%rax), %rcx
	movq	-24(%rcx), %rcx
	testb	$5, 32(%rax,%rcx)
	jne	LBB3_113
## %bb.18:                              ##   in Loop: Header=BB3_13 Depth=1
	movq	-792(%rbp), %rax        ## 8-byte Reload
	movq	%rax, -952(%rbp)
	vmovdqa	-1088(%rbp), %xmm0      ## 16-byte Reload
	vmovdqa	%xmm0, -1072(%rbp)
Ltmp315:
	movq	%r13, %rdi
	leaq	-1056(%rbp), %rbx
	movq	%rbx, %rsi
	callq	__ZNSt3__18ios_base4initEPv
Ltmp316:
## %bb.19:                              ##   in Loop: Header=BB3_13 Depth=1
	movq	$0, -816(%rbp)
	movl	$-1, -808(%rbp)
	movq	-712(%rbp), %rax        ## 8-byte Reload
	movq	%rax, -1072(%rbp)
	movq	-704(%rbp), %rax        ## 8-byte Reload
	movq	%rax, -952(%rbp)
Ltmp318:
	movq	%rbx, %rdi
	callq	__ZNSt3__115basic_streambufIcNS_11char_traitsIcEEEC2Ev
Ltmp319:
## %bb.20:                              ##   in Loop: Header=BB3_13 Depth=1
	movq	-696(%rbp), %rax        ## 8-byte Reload
	movq	%rax, -1056(%rbp)
	vpxor	%xmm0, %xmm0, %xmm0
	vmovdqu	%ymm0, -40(%r13)
	movl	$8, -960(%rbp)
Ltmp321:
	movq	%rbx, %rdi
	leaq	-784(%rbp), %rsi
	vzeroupper
	callq	__ZNSt3__115basic_stringbufIcNS_11char_traitsIcEENS_9allocatorIcEEE3strERKNS_12basic_stringIcS2_S4_EE
Ltmp322:
## %bb.21:                              ##   in Loop: Header=BB3_13 Depth=1
Ltmp324:
	movq	%r12, %rdi
	leaq	-656(%rbp), %rbx
	movq	%rbx, %rsi
	callq	__ZNSt3__1rsIcNS_11char_traitsIcEENS_9allocatorIcEEEERNS_13basic_istreamIT_T0_EES9_RNS_12basic_stringIS6_S7_T1_EE
Ltmp325:
## %bb.22:                              ##   in Loop: Header=BB3_13 Depth=1
Ltmp326:
	movq	%rax, %rdi
	leaq	-664(%rbp), %rsi
	callq	__ZNSt3__113basic_istreamIcNS_11char_traitsIcEEErsERd
Ltmp327:
## %bb.23:                              ##   in Loop: Header=BB3_13 Depth=1
	movq	(%rax), %rcx
	movq	-24(%rcx), %rcx
	testb	$5, 32(%rax,%rcx)
	jne	LBB3_110
## %bb.24:                              ##   in Loop: Header=BB3_13 Depth=1
	movzbl	-656(%rbp), %eax
	movl	%eax, %edx
	shrb	%dl
	andb	$1, %al
	movq	-648(%rbp), %rcx
	movzbl	%dl, %edx
	movq	%rcx, %rsi
	cmoveq	%rdx, %rsi
	cmpq	$3, %rsi
	jne	LBB3_28
## %bb.25:                              ##   in Loop: Header=BB3_13 Depth=1
Ltmp332:
	xorl	%esi, %esi
	movq	$-1, %rdx
	movl	$3, %r8d
	movq	%rbx, %rdi
	leaq	L_.str.39(%rip), %rcx
	callq	__ZNKSt3__112basic_stringIcNS_11char_traitsIcEENS_9allocatorIcEEE7compareEmmPKcm
Ltmp333:
## %bb.26:                              ##   in Loop: Header=BB3_13 Depth=1
	testl	%eax, %eax
	je	LBB3_103
## %bb.27:                              ##   in Loop: Header=BB3_13 Depth=1
	movzbl	-656(%rbp), %edx
	movq	-648(%rbp), %rcx
	movl	%edx, %eax
	andb	$1, %al
	shrb	%dl
	movzbl	%dl, %edx
LBB3_28:                                ##   in Loop: Header=BB3_13 Depth=1
	testb	%al, %al
	movq	%rcx, %rsi
	cmoveq	%rdx, %rsi
	cmpq	$4, %rsi
	jne	LBB3_32
## %bb.29:                              ##   in Loop: Header=BB3_13 Depth=1
Ltmp335:
	xorl	%esi, %esi
	movq	$-1, %rdx
	movl	$4, %r8d
	movq	%rbx, %rdi
	leaq	L_.str.40(%rip), %rcx
	callq	__ZNKSt3__112basic_stringIcNS_11char_traitsIcEENS_9allocatorIcEEE7compareEmmPKcm
Ltmp336:
## %bb.30:                              ##   in Loop: Header=BB3_13 Depth=1
	testl	%eax, %eax
	je	LBB3_89
## %bb.31:                              ##   in Loop: Header=BB3_13 Depth=1
	movzbl	-656(%rbp), %edx
	movq	-648(%rbp), %rcx
	movl	%edx, %eax
	andb	$1, %al
	shrb	%dl
	movzbl	%dl, %edx
LBB3_32:                                ##   in Loop: Header=BB3_13 Depth=1
	testb	%al, %al
	movq	%rcx, %rsi
	cmoveq	%rdx, %rsi
	cmpq	$6, %rsi
	jne	LBB3_36
## %bb.33:                              ##   in Loop: Header=BB3_13 Depth=1
Ltmp338:
	xorl	%esi, %esi
	movq	$-1, %rdx
	movl	$6, %r8d
	movq	%rbx, %rdi
	leaq	L_.str.41(%rip), %rcx
	callq	__ZNKSt3__112basic_stringIcNS_11char_traitsIcEENS_9allocatorIcEEE7compareEmmPKcm
Ltmp339:
## %bb.34:                              ##   in Loop: Header=BB3_13 Depth=1
	testl	%eax, %eax
	je	LBB3_91
## %bb.35:                              ##   in Loop: Header=BB3_13 Depth=1
	movzbl	-656(%rbp), %edx
	movq	-648(%rbp), %rcx
	movl	%edx, %eax
	andb	$1, %al
	shrb	%dl
	movzbl	%dl, %edx
LBB3_36:                                ##   in Loop: Header=BB3_13 Depth=1
	testb	%al, %al
	movq	%rcx, %rsi
	cmoveq	%rdx, %rsi
	cmpq	$7, %rsi
	jne	LBB3_40
## %bb.37:                              ##   in Loop: Header=BB3_13 Depth=1
Ltmp341:
	xorl	%esi, %esi
	movq	$-1, %rdx
	movl	$7, %r8d
	movq	%rbx, %rdi
	leaq	L_.str.42(%rip), %rcx
	callq	__ZNKSt3__112basic_stringIcNS_11char_traitsIcEENS_9allocatorIcEEE7compareEmmPKcm
Ltmp342:
## %bb.38:                              ##   in Loop: Header=BB3_13 Depth=1
	testl	%eax, %eax
	je	LBB3_94
## %bb.39:                              ##   in Loop: Header=BB3_13 Depth=1
	movzbl	-656(%rbp), %edx
	movq	-648(%rbp), %rcx
	movl	%edx, %eax
	andb	$1, %al
	shrb	%dl
	movzbl	%dl, %edx
LBB3_40:                                ##   in Loop: Header=BB3_13 Depth=1
	testb	%al, %al
	movq	%rcx, %rsi
	cmoveq	%rdx, %rsi
	cmpq	$3, %rsi
	jne	LBB3_44
## %bb.41:                              ##   in Loop: Header=BB3_13 Depth=1
Ltmp344:
	xorl	%esi, %esi
	movq	$-1, %rdx
	movl	$3, %r8d
	movq	%rbx, %rdi
	leaq	L_.str.43(%rip), %rcx
	callq	__ZNKSt3__112basic_stringIcNS_11char_traitsIcEENS_9allocatorIcEEE7compareEmmPKcm
Ltmp345:
## %bb.42:                              ##   in Loop: Header=BB3_13 Depth=1
	testl	%eax, %eax
	je	LBB3_96
## %bb.43:                              ##   in Loop: Header=BB3_13 Depth=1
	movzbl	-656(%rbp), %edx
	movq	-648(%rbp), %rcx
	movl	%edx, %eax
	andb	$1, %al
	shrb	%dl
	movzbl	%dl, %edx
LBB3_44:                                ##   in Loop: Header=BB3_13 Depth=1
	testb	%al, %al
	movq	%rcx, %rsi
	cmoveq	%rdx, %rsi
	cmpq	$11, %rsi
	jne	LBB3_48
## %bb.45:                              ##   in Loop: Header=BB3_13 Depth=1
Ltmp347:
	xorl	%esi, %esi
	movq	$-1, %rdx
	movl	$11, %r8d
	movq	%rbx, %rdi
	leaq	L_.str.44(%rip), %rcx
	callq	__ZNKSt3__112basic_stringIcNS_11char_traitsIcEENS_9allocatorIcEEE7compareEmmPKcm
Ltmp348:
## %bb.46:                              ##   in Loop: Header=BB3_13 Depth=1
	testl	%eax, %eax
	je	LBB3_98
## %bb.47:                              ##   in Loop: Header=BB3_13 Depth=1
	movzbl	-656(%rbp), %edx
	movq	-648(%rbp), %rcx
	movl	%edx, %eax
	andb	$1, %al
	shrb	%dl
	movzbl	%dl, %edx
LBB3_48:                                ##   in Loop: Header=BB3_13 Depth=1
	testb	%al, %al
	movq	%rcx, %rsi
	cmoveq	%rdx, %rsi
	cmpq	$8, %rsi
	jne	LBB3_52
## %bb.49:                              ##   in Loop: Header=BB3_13 Depth=1
Ltmp350:
	xorl	%esi, %esi
	movq	$-1, %rdx
	movl	$8, %r8d
	movq	%rbx, %rdi
	leaq	L_.str.45(%rip), %rcx
	callq	__ZNKSt3__112basic_stringIcNS_11char_traitsIcEENS_9allocatorIcEEE7compareEmmPKcm
Ltmp351:
## %bb.50:                              ##   in Loop: Header=BB3_13 Depth=1
	testl	%eax, %eax
	je	LBB3_100
## %bb.51:                              ##   in Loop: Header=BB3_13 Depth=1
	movzbl	-656(%rbp), %edx
	movq	-648(%rbp), %rcx
	movl	%edx, %eax
	andb	$1, %al
	shrb	%dl
	movzbl	%dl, %edx
LBB3_52:                                ##   in Loop: Header=BB3_13 Depth=1
	testb	%al, %al
	cmovneq	%rcx, %rdx
	cmpq	$3, %rdx
	jne	LBB3_56
## %bb.53:                              ##   in Loop: Header=BB3_13 Depth=1
Ltmp353:
	xorl	%esi, %esi
	movq	$-1, %rdx
	movl	$3, %r8d
	movq	%rbx, %rdi
	leaq	L_.str.46(%rip), %rcx
	callq	__ZNKSt3__112basic_stringIcNS_11char_traitsIcEENS_9allocatorIcEEE7compareEmmPKcm
Ltmp354:
## %bb.54:                              ##   in Loop: Header=BB3_13 Depth=1
	testl	%eax, %eax
	jne	LBB3_55
## %bb.102:                             ##   in Loop: Header=BB3_13 Depth=1
	vmovq	-664(%rbp), %xmm0       ## xmm0 = mem[0],zero
	vcvttsd2si	%xmm0, %eax
	movq	__ZN4Base10dimensionsE@GOTPCREL(%rip), %rcx
	jmp	LBB3_104
LBB3_103:                               ##   in Loop: Header=BB3_13 Depth=1
	vmovq	-664(%rbp), %xmm0       ## xmm0 = mem[0],zero
	vcvttsd2si	%xmm0, %eax
	movq	-680(%rbp), %rcx        ## 8-byte Reload
	jmp	LBB3_104
LBB3_89:                                ##   in Loop: Header=BB3_13 Depth=1
	vmovq	-664(%rbp), %xmm0       ## xmm0 = mem[0],zero
	vcvttsd2si	%xmm0, %eax
	movq	__ZN4Base10iterationsE@GOTPCREL(%rip), %rcx
LBB3_104:                               ##   in Loop: Header=BB3_13 Depth=1
	movl	%eax, (%rcx)
	testb	$1, -656(%rbp)
	leaq	-655(%rbp), %rsi
	leaq	-1056(%rbp), %rbx
	je	LBB3_107
LBB3_106:                               ##   in Loop: Header=BB3_13 Depth=1
	movq	-640(%rbp), %rsi
LBB3_107:                               ##   in Loop: Header=BB3_13 Depth=1
	movb	$1, %al
	leaq	L_.str.48(%rip), %rdi
	callq	_printf
	movq	-712(%rbp), %rax        ## 8-byte Reload
	movq	%rax, -1072(%rbp)
	movq	-704(%rbp), %rax        ## 8-byte Reload
	movq	%rax, -952(%rbp)
	movq	-696(%rbp), %rax        ## 8-byte Reload
	movq	%rax, -1056(%rbp)
	testb	$1, -992(%rbp)
	je	LBB3_109
## %bb.108:                             ##   in Loop: Header=BB3_13 Depth=1
	movq	-976(%rbp), %rdi
	callq	__ZdlPv
	jmp	LBB3_109
LBB3_91:                                ##   in Loop: Header=BB3_13 Depth=1
	movq	-664(%rbp), %rax
	movq	__ZN4Base6boxDimE@GOTPCREL(%rip), %rcx
	jmp	LBB3_92
LBB3_94:                                ##   in Loop: Header=BB3_13 Depth=1
	vmovq	-664(%rbp), %xmm0       ## xmm0 = mem[0],zero
	vcvttsd2si	%xmm0, %eax
	movq	-680(%rbp), %rcx        ## 8-byte Reload
	movl	%eax, 8(%rcx)
	testb	$1, -656(%rbp)
	leaq	-655(%rbp), %rsi
	leaq	-1056(%rbp), %rbx
	jne	LBB3_106
	jmp	LBB3_107
LBB3_96:                                ##   in Loop: Header=BB3_13 Depth=1
	vmovq	-664(%rbp), %xmm0       ## xmm0 = mem[0],zero
	vcvttsd2si	%xmm0, %eax
	movq	-680(%rbp), %rcx        ## 8-byte Reload
	movl	%eax, 4(%rcx)
	testb	$1, -656(%rbp)
	leaq	-655(%rbp), %rsi
	leaq	-1056(%rbp), %rbx
	jne	LBB3_106
	jmp	LBB3_107
LBB3_98:                                ##   in Loop: Header=BB3_13 Depth=1
	movq	-664(%rbp), %rax
	movq	__ZN4Base11temperatureE@GOTPCREL(%rip), %rcx
	jmp	LBB3_92
LBB3_100:                               ##   in Loop: Header=BB3_13 Depth=1
	movq	-664(%rbp), %rax
	movq	__ZN4Base5tStepE@GOTPCREL(%rip), %rcx
LBB3_92:                                ##   in Loop: Header=BB3_13 Depth=1
	movq	%rax, (%rcx)
	vmovq	%rax, %xmm0
	testb	$1, -656(%rbp)
	leaq	-655(%rbp), %rsi
	leaq	-1056(%rbp), %rbx
	jne	LBB3_106
	jmp	LBB3_107
LBB3_110:
	movq	-712(%rbp), %rax        ## 8-byte Reload
	movq	%rax, -1072(%rbp)
	movq	-704(%rbp), %rax        ## 8-byte Reload
	movq	%rax, -952(%rbp)
	movq	-696(%rbp), %rax        ## 8-byte Reload
	movq	%rax, -1056(%rbp)
	testb	$1, -992(%rbp)
	je	LBB3_112
## %bb.111:
	movq	-976(%rbp), %rdi
	callq	__ZdlPv
LBB3_112:
	leaq	-1056(%rbp), %rdi
	callq	__ZNSt3__115basic_streambufIcNS_11char_traitsIcEEED2Ev
	leaq	-1072(%rbp), %rdi
	movq	-688(%rbp), %rsi        ## 8-byte Reload
	callq	__ZNSt3__113basic_istreamIcNS_11char_traitsIcEEED2Ev
	movq	%r13, %rdi
	callq	__ZNSt3__19basic_iosIcNS_11char_traitsIcEEED2Ev
LBB3_113:
	movq	__ZN4Base6boxDimE@GOTPCREL(%rip), %rax
	vcvttsd2si	(%rax), %eax
	movq	-680(%rbp), %rcx        ## 8-byte Reload
	movl	%eax, 12(%rcx)
	movl	8(%rcx), %eax
	cmpl	4(%rcx), %eax
	jg	LBB3_114
## %bb.115:
	movq	-752(%rbp), %rax        ## 8-byte Reload
	movq	%rax, -624(%rbp)
	movq	-672(%rbp), %rax        ## 8-byte Reload
	movq	%rax, -200(%rbp)
	leaq	-608(%rbp), %rdi
	callq	__ZNSt3__113basic_filebufIcNS_11char_traitsIcEEED2Ev
	movq	__ZTTNSt3__114basic_ifstreamIcNS_11char_traitsIcEEEE@GOTPCREL(%rip), %rsi
	addq	$8, %rsi
	leaq	-624(%rbp), %rdi
	callq	__ZNSt3__113basic_istreamIcNS_11char_traitsIcEEED2Ev
	leaq	-200(%rbp), %rdi
	callq	__ZNSt3__19basic_iosIcNS_11char_traitsIcEEED2Ev
	testb	$1, -784(%rbp)
	jne	LBB3_116
## %bb.117:
	testb	$1, -656(%rbp)
	jne	LBB3_118
LBB3_119:
	testb	$1, -736(%rbp)
	jne	LBB3_120
LBB3_121:
	movq	___stack_chk_guard@GOTPCREL(%rip), %rax
	movq	(%rax), %rax
	cmpq	-48(%rbp), %rax
	jne	LBB3_124
LBB3_122:
	addq	$1048, %rsp             ## imm = 0x418
	popq	%rbx
	popq	%r12
	popq	%r13
	popq	%r14
	popq	%r15
	popq	%rbp
	retq
LBB3_116:
	movq	-768(%rbp), %rdi
	callq	__ZdlPv
	testb	$1, -656(%rbp)
	je	LBB3_119
LBB3_118:
	movq	-640(%rbp), %rdi
	callq	__ZdlPv
	testb	$1, -736(%rbp)
	je	LBB3_121
LBB3_120:
	movq	-720(%rbp), %rdi
	callq	__ZdlPv
	movq	___stack_chk_guard@GOTPCREL(%rip), %rax
	movq	(%rax), %rax
	cmpq	-48(%rbp), %rax
	je	LBB3_122
LBB3_124:
	callq	___stack_chk_fail
LBB3_55:
	movb	-656(%rbp), %al
	andb	$1, %al
LBB3_56:
	testb	%al, %al
	je	LBB3_58
## %bb.57:
	movq	-640(%rbp), %rax
	movq	%rax, -744(%rbp)        ## 8-byte Spill
LBB3_58:
	leaq	L_.str.47(%rip), %rdi
	xorl	%eax, %eax
	movq	-744(%rbp), %rsi        ## 8-byte Reload
	callq	_printf
Ltmp356:
	movl	$1, %edi
	callq	_exit
Ltmp357:
LBB3_59:
	ud2
LBB3_114:
	leaq	L_str.146(%rip), %rdi
	callq	_puts
Ltmp329:
	xorl	%edi, %edi
	callq	_exit
Ltmp330:
	jmp	LBB3_59
LBB3_67:
Ltmp331:
	jmp	LBB3_68
LBB3_83:
Ltmp358:
	movq	%rax, %r15
	movq	%r14, %r13
	jmp	LBB3_84
LBB3_9:
Ltmp299:
	movq	%rax, %r15
	jmp	LBB3_72
LBB3_65:
Ltmp296:
	movq	%rax, %r15
	movq	%r14, %rdi
	callq	__ZNSt3__19basic_iosIcNS_11char_traitsIcEEED2Ev
	testb	$1, -784(%rbp)
	jne	LBB3_74
	jmp	LBB3_75
LBB3_10:
Ltmp304:
	movq	%rax, %r15
	jmp	LBB3_71
LBB3_99:
Ltmp352:
	movq	%rax, %rdi
	callq	___clang_call_terminate
LBB3_97:
Ltmp349:
	movq	%rax, %rdi
	callq	___clang_call_terminate
LBB3_95:
Ltmp346:
	movq	%rax, %rdi
	callq	___clang_call_terminate
LBB3_101:
Ltmp355:
	movq	%rax, %rdi
	callq	___clang_call_terminate
LBB3_93:
Ltmp343:
	movq	%rax, %rdi
	callq	___clang_call_terminate
LBB3_90:
Ltmp340:
	movq	%rax, %rdi
	callq	___clang_call_terminate
LBB3_88:
Ltmp337:
	movq	%rax, %rdi
	callq	___clang_call_terminate
LBB3_87:
Ltmp334:
	movq	%rax, %rdi
	callq	___clang_call_terminate
LBB3_60:
Ltmp323:
	movq	%rax, %r15
	testb	$1, -992(%rbp)
	leaq	-200(%rbp), %r14
	leaq	-608(%rbp), %r12
	movq	-672(%rbp), %rbx        ## 8-byte Reload
	je	LBB3_62
## %bb.61:
	movq	-976(%rbp), %rdi
	callq	__ZdlPv
LBB3_62:
	leaq	-1056(%rbp), %rdi
	callq	__ZNSt3__115basic_streambufIcNS_11char_traitsIcEEED2Ev
	jmp	LBB3_64
LBB3_63:
Ltmp320:
	movq	%rax, %r15
	leaq	-200(%rbp), %r14
	leaq	-608(%rbp), %r12
	movq	-672(%rbp), %rbx        ## 8-byte Reload
LBB3_64:
	leaq	-1072(%rbp), %rdi
	movq	-688(%rbp), %rsi        ## 8-byte Reload
	callq	__ZNSt3__113basic_istreamIcNS_11char_traitsIcEEED2Ev
	jmp	LBB3_81
LBB3_80:
Ltmp317:
	movq	%rax, %r15
	leaq	-200(%rbp), %r14
	leaq	-608(%rbp), %r12
	movq	-672(%rbp), %rbx        ## 8-byte Reload
LBB3_81:
	movq	%r13, %rdi
	callq	__ZNSt3__19basic_iosIcNS_11char_traitsIcEEED2Ev
	jmp	LBB3_70
LBB3_82:
Ltmp328:
	movq	%rax, %r15
LBB3_84:
	leaq	-1056(%rbp), %rbx
	movq	-712(%rbp), %rax        ## 8-byte Reload
	movq	%rax, -1072(%rbp)
	movq	-704(%rbp), %rax        ## 8-byte Reload
	movq	%rax, -952(%rbp)
	movq	-696(%rbp), %rax        ## 8-byte Reload
	movq	%rax, -1056(%rbp)
	testb	$1, -992(%rbp)
	je	LBB3_86
## %bb.85:
	movq	-976(%rbp), %rdi
	callq	__ZdlPv
LBB3_86:
	movq	%rbx, %rdi
	callq	__ZNSt3__115basic_streambufIcNS_11char_traitsIcEEED2Ev
	leaq	-1072(%rbp), %rdi
	movq	-688(%rbp), %rsi        ## 8-byte Reload
	callq	__ZNSt3__113basic_istreamIcNS_11char_traitsIcEEED2Ev
	movq	%r13, %rdi
	callq	__ZNSt3__19basic_iosIcNS_11char_traitsIcEEED2Ev
	jmp	LBB3_69
LBB3_123:
Ltmp311:
	movq	%rax, %r15
	leaq	-1072(%rbp), %rdi
	callq	__ZNSt3__16localeD1Ev
	jmp	LBB3_69
LBB3_66:
Ltmp314:
LBB3_68:
	movq	%rax, %r15
LBB3_69:
	leaq	-200(%rbp), %r14
	leaq	-608(%rbp), %r12
	movq	-672(%rbp), %rbx        ## 8-byte Reload
LBB3_70:
	movq	-752(%rbp), %rax        ## 8-byte Reload
	movq	%rax, -624(%rbp)
	movq	%rbx, -200(%rbp)
LBB3_71:
	movq	%r12, %rdi
	callq	__ZNSt3__113basic_filebufIcNS_11char_traitsIcEEED2Ev
LBB3_72:
	movq	__ZTTNSt3__114basic_ifstreamIcNS_11char_traitsIcEEEE@GOTPCREL(%rip), %rsi
	addq	$8, %rsi
	leaq	-624(%rbp), %rdi
	callq	__ZNSt3__113basic_istreamIcNS_11char_traitsIcEEED2Ev
	movq	%r14, %rdi
	callq	__ZNSt3__19basic_iosIcNS_11char_traitsIcEEED2Ev
	testb	$1, -784(%rbp)
	je	LBB3_75
LBB3_74:
	movq	-768(%rbp), %rdi
	callq	__ZdlPv
LBB3_75:
	testb	$1, -656(%rbp)
	jne	LBB3_76
## %bb.77:
	testb	$1, -736(%rbp)
	jne	LBB3_78
LBB3_79:
	movq	%r15, %rdi
	callq	__Unwind_Resume
	ud2
LBB3_76:
	movq	-640(%rbp), %rdi
	callq	__ZdlPv
	testb	$1, -736(%rbp)
	je	LBB3_79
LBB3_78:
	movq	-720(%rbp), %rdi
	callq	__ZdlPv
	movq	%r15, %rdi
	callq	__Unwind_Resume
	ud2
Lfunc_end2:
	.cfi_endproc
	.section	__TEXT,__gcc_except_tab
	.p2align	2
GCC_except_table3:
Lexception2:
	.byte	255                     ## @LPStart Encoding = omit
	.byte	155                     ## @TType Encoding = indirect pcrel sdata4
	.asciz	"\247\202"              ## @TType base offset
	.byte	3                       ## Call site Encoding = udata4
	.ascii	"\236\002"              ## Call site table length
Lset238 = Ltmp294-Lfunc_begin2          ## >> Call Site 1 <<
	.long	Lset238
Lset239 = Ltmp295-Ltmp294               ##   Call between Ltmp294 and Ltmp295
	.long	Lset239
Lset240 = Ltmp296-Lfunc_begin2          ##     jumps to Ltmp296
	.long	Lset240
	.byte	0                       ##   On action: cleanup
Lset241 = Ltmp297-Lfunc_begin2          ## >> Call Site 2 <<
	.long	Lset241
Lset242 = Ltmp298-Ltmp297               ##   Call between Ltmp297 and Ltmp298
	.long	Lset242
Lset243 = Ltmp299-Lfunc_begin2          ##     jumps to Ltmp299
	.long	Lset243
	.byte	0                       ##   On action: cleanup
Lset244 = Ltmp302-Lfunc_begin2          ## >> Call Site 3 <<
	.long	Lset244
Lset245 = Ltmp301-Ltmp302               ##   Call between Ltmp302 and Ltmp301
	.long	Lset245
Lset246 = Ltmp304-Lfunc_begin2          ##     jumps to Ltmp304
	.long	Lset246
	.byte	0                       ##   On action: cleanup
Lset247 = Ltmp305-Lfunc_begin2          ## >> Call Site 4 <<
	.long	Lset247
Lset248 = Ltmp306-Ltmp305               ##   Call between Ltmp305 and Ltmp306
	.long	Lset248
Lset249 = Ltmp314-Lfunc_begin2          ##     jumps to Ltmp314
	.long	Lset249
	.byte	0                       ##   On action: cleanup
Lset250 = Ltmp307-Lfunc_begin2          ## >> Call Site 5 <<
	.long	Lset250
Lset251 = Ltmp310-Ltmp307               ##   Call between Ltmp307 and Ltmp310
	.long	Lset251
Lset252 = Ltmp311-Lfunc_begin2          ##     jumps to Ltmp311
	.long	Lset252
	.byte	0                       ##   On action: cleanup
Lset253 = Ltmp312-Lfunc_begin2          ## >> Call Site 6 <<
	.long	Lset253
Lset254 = Ltmp313-Ltmp312               ##   Call between Ltmp312 and Ltmp313
	.long	Lset254
Lset255 = Ltmp314-Lfunc_begin2          ##     jumps to Ltmp314
	.long	Lset255
	.byte	0                       ##   On action: cleanup
Lset256 = Ltmp315-Lfunc_begin2          ## >> Call Site 7 <<
	.long	Lset256
Lset257 = Ltmp316-Ltmp315               ##   Call between Ltmp315 and Ltmp316
	.long	Lset257
Lset258 = Ltmp317-Lfunc_begin2          ##     jumps to Ltmp317
	.long	Lset258
	.byte	0                       ##   On action: cleanup
Lset259 = Ltmp318-Lfunc_begin2          ## >> Call Site 8 <<
	.long	Lset259
Lset260 = Ltmp319-Ltmp318               ##   Call between Ltmp318 and Ltmp319
	.long	Lset260
Lset261 = Ltmp320-Lfunc_begin2          ##     jumps to Ltmp320
	.long	Lset261
	.byte	0                       ##   On action: cleanup
Lset262 = Ltmp321-Lfunc_begin2          ## >> Call Site 9 <<
	.long	Lset262
Lset263 = Ltmp322-Ltmp321               ##   Call between Ltmp321 and Ltmp322
	.long	Lset263
Lset264 = Ltmp323-Lfunc_begin2          ##     jumps to Ltmp323
	.long	Lset264
	.byte	0                       ##   On action: cleanup
Lset265 = Ltmp324-Lfunc_begin2          ## >> Call Site 10 <<
	.long	Lset265
Lset266 = Ltmp327-Ltmp324               ##   Call between Ltmp324 and Ltmp327
	.long	Lset266
Lset267 = Ltmp328-Lfunc_begin2          ##     jumps to Ltmp328
	.long	Lset267
	.byte	0                       ##   On action: cleanup
Lset268 = Ltmp332-Lfunc_begin2          ## >> Call Site 11 <<
	.long	Lset268
Lset269 = Ltmp333-Ltmp332               ##   Call between Ltmp332 and Ltmp333
	.long	Lset269
Lset270 = Ltmp334-Lfunc_begin2          ##     jumps to Ltmp334
	.long	Lset270
	.byte	1                       ##   On action: 1
Lset271 = Ltmp335-Lfunc_begin2          ## >> Call Site 12 <<
	.long	Lset271
Lset272 = Ltmp336-Ltmp335               ##   Call between Ltmp335 and Ltmp336
	.long	Lset272
Lset273 = Ltmp337-Lfunc_begin2          ##     jumps to Ltmp337
	.long	Lset273
	.byte	1                       ##   On action: 1
Lset274 = Ltmp338-Lfunc_begin2          ## >> Call Site 13 <<
	.long	Lset274
Lset275 = Ltmp339-Ltmp338               ##   Call between Ltmp338 and Ltmp339
	.long	Lset275
Lset276 = Ltmp340-Lfunc_begin2          ##     jumps to Ltmp340
	.long	Lset276
	.byte	1                       ##   On action: 1
Lset277 = Ltmp341-Lfunc_begin2          ## >> Call Site 14 <<
	.long	Lset277
Lset278 = Ltmp342-Ltmp341               ##   Call between Ltmp341 and Ltmp342
	.long	Lset278
Lset279 = Ltmp343-Lfunc_begin2          ##     jumps to Ltmp343
	.long	Lset279
	.byte	1                       ##   On action: 1
Lset280 = Ltmp344-Lfunc_begin2          ## >> Call Site 15 <<
	.long	Lset280
Lset281 = Ltmp345-Ltmp344               ##   Call between Ltmp344 and Ltmp345
	.long	Lset281
Lset282 = Ltmp346-Lfunc_begin2          ##     jumps to Ltmp346
	.long	Lset282
	.byte	1                       ##   On action: 1
Lset283 = Ltmp347-Lfunc_begin2          ## >> Call Site 16 <<
	.long	Lset283
Lset284 = Ltmp348-Ltmp347               ##   Call between Ltmp347 and Ltmp348
	.long	Lset284
Lset285 = Ltmp349-Lfunc_begin2          ##     jumps to Ltmp349
	.long	Lset285
	.byte	1                       ##   On action: 1
Lset286 = Ltmp350-Lfunc_begin2          ## >> Call Site 17 <<
	.long	Lset286
Lset287 = Ltmp351-Ltmp350               ##   Call between Ltmp350 and Ltmp351
	.long	Lset287
Lset288 = Ltmp352-Lfunc_begin2          ##     jumps to Ltmp352
	.long	Lset288
	.byte	1                       ##   On action: 1
Lset289 = Ltmp353-Lfunc_begin2          ## >> Call Site 18 <<
	.long	Lset289
Lset290 = Ltmp354-Ltmp353               ##   Call between Ltmp353 and Ltmp354
	.long	Lset290
Lset291 = Ltmp355-Lfunc_begin2          ##     jumps to Ltmp355
	.long	Lset291
	.byte	1                       ##   On action: 1
Lset292 = Ltmp354-Lfunc_begin2          ## >> Call Site 19 <<
	.long	Lset292
Lset293 = Ltmp356-Ltmp354               ##   Call between Ltmp354 and Ltmp356
	.long	Lset293
	.long	0                       ##     has no landing pad
	.byte	0                       ##   On action: cleanup
Lset294 = Ltmp356-Lfunc_begin2          ## >> Call Site 20 <<
	.long	Lset294
Lset295 = Ltmp357-Ltmp356               ##   Call between Ltmp356 and Ltmp357
	.long	Lset295
Lset296 = Ltmp358-Lfunc_begin2          ##     jumps to Ltmp358
	.long	Lset296
	.byte	0                       ##   On action: cleanup
Lset297 = Ltmp329-Lfunc_begin2          ## >> Call Site 21 <<
	.long	Lset297
Lset298 = Ltmp330-Ltmp329               ##   Call between Ltmp329 and Ltmp330
	.long	Lset298
Lset299 = Ltmp331-Lfunc_begin2          ##     jumps to Ltmp331
	.long	Lset299
	.byte	0                       ##   On action: cleanup
Lset300 = Ltmp330-Lfunc_begin2          ## >> Call Site 22 <<
	.long	Lset300
Lset301 = Lfunc_end2-Ltmp330            ##   Call between Ltmp330 and Lfunc_end2
	.long	Lset301
	.long	0                       ##     has no landing pad
	.byte	0                       ##   On action: cleanup
	.byte	1                       ## >> Action Record 1 <<
                                        ##   Catch TypeInfo 1
	.byte	0                       ##   No further actions
                                        ## >> Catch TypeInfos <<
	.long	0                       ## TypeInfo 1
	.p2align	2
                                        ## -- End function
	.section	__TEXT,__const
	.p2align	5               ## -- Begin function _ZN2IO10read_frameENSt3__112basic_stringIcNS0_11char_traitsIcEENS0_9allocatorIcEEEE
LCPI4_0:
	.space	32
	.section	__TEXT,__text,regular,pure_instructions
	.globl	__ZN2IO10read_frameENSt3__112basic_stringIcNS0_11char_traitsIcEENS0_9allocatorIcEEEE
	.weak_def_can_be_hidden	__ZN2IO10read_frameENSt3__112basic_stringIcNS0_11char_traitsIcEENS0_9allocatorIcEEEE
	.p2align	4, 0x90
__ZN2IO10read_frameENSt3__112basic_stringIcNS0_11char_traitsIcEENS0_9allocatorIcEEEE: ## @_ZN2IO10read_frameENSt3__112basic_stringIcNS0_11char_traitsIcEENS0_9allocatorIcEEEE
Lfunc_begin3:
	.cfi_startproc
	.cfi_personality 155, ___gxx_personality_v0
	.cfi_lsda 16, Lexception3
## %bb.0:
	pushq	%rbp
	.cfi_def_cfa_offset 16
	.cfi_offset %rbp, -16
	movq	%rsp, %rbp
	.cfi_def_cfa_register %rbp
	pushq	%r15
	pushq	%r14
	pushq	%r13
	pushq	%r12
	pushq	%rbx
	andq	$-32, %rsp
	subq	$1856, %rsp             ## imm = 0x740
	.cfi_offset %rbx, -56
	.cfi_offset %r12, -48
	.cfi_offset %r13, -40
	.cfi_offset %r14, -32
	.cfi_offset %r15, -24
	movq	%rdx, %r15
	movq	___stack_chk_guard@GOTPCREL(%rip), %rax
	movq	(%rax), %rax
	movq	%rax, 1824(%rsp)
	movq	%rdi, 248(%rsp)         ## 8-byte Spill
	vxorps	%xmm0, %xmm0, %xmm0
	vmovaps	%xmm0, 752(%rsp)
	movq	$0, 768(%rsp)
	vmovaps	%xmm0, 336(%rsp)
	movq	$0, 352(%rsp)
	vmovaps	%xmm0, 272(%rsp)
	vmovaps	%xmm0, 224(%rsp)
	movq	$0, 288(%rsp)
	movq	$0, 240(%rsp)
	leaq	1672(%rsp), %rbx
	leaq	1264(%rsp), %r12
	movq	__ZTCNSt3__114basic_ifstreamIcNS_11char_traitsIcEEEE0_NS_13basic_istreamIcS2_EE@GOTPCREL(%rip), %rax
	leaq	64(%rax), %rcx
	movq	%rcx, 1672(%rsp)
	addq	$24, %rax
	vmovq	%rax, %xmm0
	vmovdqa	%xmm0, 1248(%rsp)
Ltmp359:
	movq	%rbx, %rdi
	movq	%r12, %rsi
	callq	__ZNSt3__18ios_base4initEPv
Ltmp360:
## %bb.1:
	movq	$0, 1808(%rsp)
	movl	$-1, 1816(%rsp)
	movq	__ZTVNSt3__114basic_ifstreamIcNS_11char_traitsIcEEEE@GOTPCREL(%rip), %r13
	leaq	24(%r13), %rax
	movq	%rax, 776(%rsp)         ## 8-byte Spill
	movq	%rax, 1248(%rsp)
	addq	$64, %r13
	movq	%r13, 1672(%rsp)
Ltmp362:
	movq	%r12, %rdi
	callq	__ZNSt3__113basic_filebufIcNS_11char_traitsIcEEEC2Ev
Ltmp363:
## %bb.2:
	leaq	1(%r15), %r14
	cmpq	$0, 1384(%rsp)
	je	LBB4_4
LBB4_3:
	movq	1248(%rsp), %rax
	movq	-24(%rax), %rax
	leaq	(%rsp,%rax), %rdi
	addq	$1248, %rdi             ## imm = 0x4E0
	movl	1280(%rsp,%rax), %esi
	orl	$4, %esi
Ltmp367:
	callq	__ZNSt3__18ios_base5clearEj
Ltmp368:
	jmp	LBB4_7
LBB4_4:
	testb	$1, (%r15)
	movq	16(%r15), %rdi
	cmoveq	%r14, %rdi
Ltmp365:
	leaq	L_.str.27(%rip), %rsi
	callq	_fopen
Ltmp366:
## %bb.5:
	movq	%rax, 1384(%rsp)
	testq	%rax, %rax
	je	LBB4_3
## %bb.6:
	movl	$8, 1656(%rsp)
LBB4_7:
Ltmp370:
	movl	$24, %edi
	callq	__Znwm
Ltmp371:
## %bb.8:
	movq	%r13, 160(%rsp)         ## 8-byte Spill
	vpxor	%xmm0, %xmm0, %xmm0
	vmovdqu	%xmm0, (%rax)
	movq	$0, 16(%rax)
	movq	1248(%rsp), %rcx
	movq	-24(%rcx), %rcx
	testb	$5, 1280(%rsp,%rcx)
	movq	%rax, 256(%rsp)         ## 8-byte Spill
	jne	LBB4_223
## %bb.9:
	movl	$0, 880(%rsp)
	vxorps	%xmm1, %xmm1, %xmm1
	vmovups	%ymm1, 908(%rsp)
	vmovups	%ymm1, 888(%rsp)
	vmovups	%ymm1, 1032(%rsp)
	vmovups	%ymm1, 1008(%rsp)
	vmovups	%ymm1, 976(%rsp)
	vmovups	%ymm1, 944(%rsp)
	vmovdqu	%xmm0, 380(%rsp)
	vmovdqa	%xmm0, 368(%rsp)
	vmovups	%ymm1, 432(%rsp)
	vmovups	%ymm1, 400(%rsp)
	movq	$0, 464(%rsp)
	xorl	%eax, %eax
	movq	%rax, 304(%rsp)         ## 8-byte Spill
	movq	__ZTVNSt3__115basic_stringbufIcNS_11char_traitsIcEENS_9allocatorIcEEEE@GOTPCREL(%rip), %rax
	addq	$16, %rax
	movq	%rax, 200(%rsp)         ## 8-byte Spill
	movq	__ZTTNSt3__119basic_istringstreamIcNS_11char_traitsIcEENS_9allocatorIcEEEE@GOTPCREL(%rip), %rax
	addq	$8, %rax
	movq	%rax, 192(%rsp)         ## 8-byte Spill
	leaq	1248(%rsp), %r14
	leaq	480(%rsp), %r15
	movq	__ZNSt3__15ctypeIcE2idE@GOTPCREL(%rip), %r12
	leaq	336(%rsp), %r13
	movl	$0, 172(%rsp)           ## 4-byte Folded Spill
	jmp	LBB4_11
LBB4_10:                                ##   in Loop: Header=BB4_11 Depth=1
	addl	$1, %ecx
	movl	%ecx, 172(%rsp)         ## 4-byte Spill
	.p2align	4, 0x90
LBB4_11:                                ## =>This Loop Header: Depth=1
                                        ##     Child Loop BB4_65 Depth 2
                                        ##       Child Loop BB4_70 Depth 3
                                        ##     Child Loop BB4_75 Depth 2
	movq	1248(%rsp), %rax
	movq	-24(%rax), %rsi
	addq	%r14, %rsi
Ltmp376:
	movq	%r15, %rdi
	vzeroupper
	callq	__ZNKSt3__18ios_base6getlocEv
Ltmp377:
## %bb.12:                              ##   in Loop: Header=BB4_11 Depth=1
Ltmp378:
	movq	%r15, %rdi
	movq	%r12, %rsi
	callq	__ZNKSt3__16locale9use_facetERNS0_2idE
Ltmp379:
## %bb.13:                              ##   in Loop: Header=BB4_11 Depth=1
	movq	(%rax), %rcx
Ltmp380:
	movl	$10, %esi
	movq	%rax, %rdi
	callq	*56(%rcx)
	movl	%eax, %ebx
Ltmp381:
## %bb.14:                              ##   in Loop: Header=BB4_11 Depth=1
	movq	%r15, %rdi
	callq	__ZNSt3__16localeD1Ev
Ltmp383:
	movsbl	%bl, %edx
	movq	%r14, %rdi
	movq	%r13, %rsi
	callq	__ZNSt3__17getlineIcNS_11char_traitsIcEENS_9allocatorIcEEEERNS_13basic_istreamIT_T0_EES9_RNS_12basic_stringIS6_S7_T1_EES6_
Ltmp384:
## %bb.15:                              ##   in Loop: Header=BB4_11 Depth=1
	movq	(%rax), %rcx
	movq	-24(%rcx), %rcx
	testb	$5, 32(%rax,%rcx)
	jne	LBB4_120
## %bb.16:                              ##   in Loop: Header=BB4_11 Depth=1
	movb	336(%rsp), %al
	leaq	337(%rsp), %rcx
	testb	$1, %al
	je	LBB4_18
## %bb.17:                              ##   in Loop: Header=BB4_11 Depth=1
	movq	352(%rsp), %rcx
LBB4_18:                                ##   in Loop: Header=BB4_11 Depth=1
	cmpb	$35, (%rcx)
	je	LBB4_11
## %bb.19:                              ##   in Loop: Header=BB4_11 Depth=1
	testb	$1, %al
	je	LBB4_30
## %bb.20:                              ##   in Loop: Header=BB4_11 Depth=1
	movq	344(%rsp), %rax
	testq	%rax, %rax
	je	LBB4_11
LBB4_21:                                ##   in Loop: Header=BB4_11 Depth=1
	movl	172(%rsp), %ecx         ## 4-byte Reload
	movl	%ecx, %eax
	andl	$2147483647, %eax       ## imm = 0x7FFFFFFF
	je	LBB4_99
## %bb.22:                              ##   in Loop: Header=BB4_11 Depth=1
	cmpl	$1, %eax
	jne	LBB4_31
## %bb.23:                              ##   in Loop: Header=BB4_11 Depth=1
	movq	__ZTCNSt3__119basic_istringstreamIcNS_11char_traitsIcEENS_9allocatorIcEEEE0_NS_13basic_istreamIcS2_EE@GOTPCREL(%rip), %rax
	movq	%rax, %rcx
	leaq	64(%rcx), %rax
	movq	%rax, 600(%rsp)
	leaq	24(%rcx), %rax
	vmovq	%rax, %xmm0
	vmovdqa	%xmm0, 480(%rsp)
Ltmp386:
	leaq	600(%rsp), %rdi
	leaq	496(%rsp), %rbx
	movq	%rbx, %rsi
	callq	__ZNSt3__18ios_base4initEPv
Ltmp387:
## %bb.24:                              ##   in Loop: Header=BB4_11 Depth=1
	movq	$0, 736(%rsp)
	movl	$-1, 744(%rsp)
	movq	__ZTVNSt3__119basic_istringstreamIcNS_11char_traitsIcEENS_9allocatorIcEEEE@GOTPCREL(%rip), %rax
	leaq	24(%rax), %rcx
	movq	%rcx, 184(%rsp)         ## 8-byte Spill
	movq	%rcx, 480(%rsp)
	leaq	64(%rax), %rax
	movq	%rax, 176(%rsp)         ## 8-byte Spill
	movq	%rax, 600(%rsp)
Ltmp389:
	movq	%rbx, %rdi
	callq	__ZNSt3__115basic_streambufIcNS_11char_traitsIcEEEC2Ev
Ltmp390:
## %bb.25:                              ##   in Loop: Header=BB4_11 Depth=1
	movq	200(%rsp), %rax         ## 8-byte Reload
	movq	%rax, 496(%rsp)
	leaq	600(%rsp), %rax
	vpxor	%xmm0, %xmm0, %xmm0
	vmovdqu	%ymm0, -40(%rax)
	movl	$8, 592(%rsp)
Ltmp392:
	movq	%rbx, %rdi
	movq	%r13, %rsi
	vzeroupper
	callq	__ZNSt3__115basic_stringbufIcNS_11char_traitsIcEENS_9allocatorIcEEE3strERKNS_12basic_stringIcS2_S4_EE
Ltmp393:
## %bb.26:                              ##   in Loop: Header=BB4_11 Depth=1
Ltmp395:
	movq	%r15, %rdi
	leaq	220(%rsp), %rsi
	callq	__ZNSt3__113basic_istreamIcNS_11char_traitsIcEEErsERi
Ltmp396:
## %bb.27:                              ##   in Loop: Header=BB4_11 Depth=1
	movq	(%rax), %rcx
	movq	-24(%rcx), %rcx
	testb	$5, 32(%rax,%rcx)
	jne	LBB4_222
## %bb.28:                              ##   in Loop: Header=BB4_11 Depth=1
	movq	184(%rsp), %rax         ## 8-byte Reload
	movq	%rax, 480(%rsp)
	movq	176(%rsp), %rax         ## 8-byte Reload
	movq	%rax, 600(%rsp)
	movq	200(%rsp), %rax         ## 8-byte Reload
	movq	%rax, 496(%rsp)
	testb	$1, 560(%rsp)
	je	LBB4_98
## %bb.29:                              ##   in Loop: Header=BB4_11 Depth=1
	movq	576(%rsp), %rdi
	callq	__ZdlPv
	jmp	LBB4_98
	.p2align	4, 0x90
LBB4_30:                                ##   in Loop: Header=BB4_11 Depth=1
	shrb	%al
	movzbl	%al, %eax
	testq	%rax, %rax
	je	LBB4_11
	jmp	LBB4_21
LBB4_31:                                ##   in Loop: Header=BB4_11 Depth=1
	movl	220(%rsp), %eax
	addl	$1, %eax
	cmpl	%eax, %ecx
	jg	LBB4_99
## %bb.32:                              ##   in Loop: Header=BB4_11 Depth=1
	movq	__ZTCNSt3__119basic_istringstreamIcNS_11char_traitsIcEENS_9allocatorIcEEEE0_NS_13basic_istreamIcS2_EE@GOTPCREL(%rip), %rax
	movq	%rax, %rcx
	leaq	64(%rcx), %rax
	movq	%rax, 600(%rsp)
	leaq	24(%rcx), %rax
	vmovq	%rax, %xmm0
	vmovdqa	%xmm0, 480(%rsp)
Ltmp401:
	leaq	600(%rsp), %rdi
	leaq	496(%rsp), %rbx
	movq	%rbx, %rsi
	callq	__ZNSt3__18ios_base4initEPv
Ltmp402:
## %bb.33:                              ##   in Loop: Header=BB4_11 Depth=1
	movq	$0, 736(%rsp)
	movl	$-1, 744(%rsp)
	movq	__ZTVNSt3__119basic_istringstreamIcNS_11char_traitsIcEENS_9allocatorIcEEEE@GOTPCREL(%rip), %rax
	leaq	24(%rax), %rcx
	movq	%rcx, 184(%rsp)         ## 8-byte Spill
	movq	%rcx, 480(%rsp)
	leaq	64(%rax), %rax
	movq	%rax, 176(%rsp)         ## 8-byte Spill
	movq	%rax, 600(%rsp)
Ltmp404:
	movq	%rbx, %rdi
	callq	__ZNSt3__115basic_streambufIcNS_11char_traitsIcEEEC2Ev
Ltmp405:
## %bb.34:                              ##   in Loop: Header=BB4_11 Depth=1
	movq	200(%rsp), %rax         ## 8-byte Reload
	movq	%rax, 496(%rsp)
	leaq	600(%rsp), %rax
	vpxor	%xmm0, %xmm0, %xmm0
	vmovdqu	%ymm0, -40(%rax)
	movl	$8, 592(%rsp)
Ltmp407:
	movq	%rbx, %rdi
	movq	%r13, %rsi
	vzeroupper
	callq	__ZNSt3__115basic_stringbufIcNS_11char_traitsIcEENS_9allocatorIcEEE3strERKNS_12basic_stringIcS2_S4_EE
Ltmp408:
## %bb.35:                              ##   in Loop: Header=BB4_11 Depth=1
Ltmp410:
	movq	%r15, %rdi
	leaq	272(%rsp), %rsi
	callq	__ZNSt3__1rsIcNS_11char_traitsIcEENS_9allocatorIcEEEERNS_13basic_istreamIT_T0_EES9_RNS_12basic_stringIS6_S7_T1_EE
Ltmp411:
## %bb.36:                              ##   in Loop: Header=BB4_11 Depth=1
Ltmp412:
	movq	%rax, %rdi
	leaq	752(%rsp), %rsi
	callq	__ZNSt3__1rsIcNS_11char_traitsIcEENS_9allocatorIcEEEERNS_13basic_istreamIT_T0_EES9_RNS_12basic_stringIS6_S7_T1_EE
Ltmp413:
## %bb.37:                              ##   in Loop: Header=BB4_11 Depth=1
Ltmp414:
	movq	%rax, %rdi
	leaq	332(%rsp), %rsi
	callq	__ZNSt3__113basic_istreamIcNS_11char_traitsIcEEErsERi
Ltmp415:
## %bb.38:                              ##   in Loop: Header=BB4_11 Depth=1
Ltmp416:
	movq	%rax, %rdi
	leaq	824(%rsp), %rsi
	callq	__ZNSt3__113basic_istreamIcNS_11char_traitsIcEEErsERd
Ltmp417:
## %bb.39:                              ##   in Loop: Header=BB4_11 Depth=1
Ltmp418:
	movq	%rax, %rdi
	leaq	816(%rsp), %rsi
	callq	__ZNSt3__113basic_istreamIcNS_11char_traitsIcEEErsERd
Ltmp419:
## %bb.40:                              ##   in Loop: Header=BB4_11 Depth=1
Ltmp420:
	movq	%rax, %rdi
	leaq	808(%rsp), %rsi
	callq	__ZNSt3__113basic_istreamIcNS_11char_traitsIcEEErsERd
Ltmp421:
## %bb.41:                              ##   in Loop: Header=BB4_11 Depth=1
Ltmp422:
	movq	%rax, %rdi
	leaq	800(%rsp), %rsi
	callq	__ZNSt3__113basic_istreamIcNS_11char_traitsIcEEErsERd
Ltmp423:
## %bb.42:                              ##   in Loop: Header=BB4_11 Depth=1
Ltmp424:
	movq	%rax, %rdi
	leaq	792(%rsp), %rsi
	callq	__ZNSt3__113basic_istreamIcNS_11char_traitsIcEEErsERd
Ltmp425:
## %bb.43:                              ##   in Loop: Header=BB4_11 Depth=1
Ltmp426:
	movq	%rax, %rdi
	leaq	784(%rsp), %rsi
	callq	__ZNSt3__113basic_istreamIcNS_11char_traitsIcEEErsERd
Ltmp427:
## %bb.44:                              ##   in Loop: Header=BB4_11 Depth=1
	movq	(%rax), %rcx
	movq	-24(%rcx), %rcx
	testb	$5, 32(%rax,%rcx)
	je	LBB4_55
## %bb.45:                              ##   in Loop: Header=BB4_11 Depth=1
	movq	480(%rsp), %rax
	movq	-24(%rax), %rdi
	addq	%r15, %rdi
Ltmp428:
	xorl	%esi, %esi
	callq	__ZNSt3__18ios_base5clearEj
Ltmp429:
## %bb.46:                              ##   in Loop: Header=BB4_11 Depth=1
	vpxor	%xmm0, %xmm0, %xmm0
	vmovdqa	%ymm0, 1184(%rsp)
	vmovdqa	%ymm0, 1152(%rsp)
	vmovdqa	%ymm0, 1120(%rsp)
	vmovdqa	%ymm0, 1088(%rsp)
	movq	$0, 1216(%rsp)
Ltmp430:
	movq	1216(%rsp), %rax
	movq	%rax, 128(%rsp)
	vmovdqa	1088(%rsp), %ymm0
	vmovaps	1120(%rsp), %ymm1
	vmovaps	1152(%rsp), %ymm2
	vmovaps	1184(%rsp), %ymm3
	vmovups	%ymm3, 96(%rsp)
	vmovups	%ymm2, 64(%rsp)
	vmovups	%ymm1, 32(%rsp)
	vmovdqu	%ymm0, (%rsp)
	movq	%r15, %rdi
	vzeroupper
	callq	__ZNSt3__113basic_istreamIcNS_11char_traitsIcEEE5seekgENS_4fposI11__mbstate_tEE
Ltmp431:
## %bb.47:                              ##   in Loop: Header=BB4_11 Depth=1
Ltmp432:
	movq	%r15, %rdi
	leaq	272(%rsp), %rsi
	callq	__ZNSt3__1rsIcNS_11char_traitsIcEENS_9allocatorIcEEEERNS_13basic_istreamIT_T0_EES9_RNS_12basic_stringIS6_S7_T1_EE
Ltmp433:
## %bb.48:                              ##   in Loop: Header=BB4_11 Depth=1
Ltmp434:
	movq	%rax, %rdi
	leaq	752(%rsp), %rsi
	callq	__ZNSt3__1rsIcNS_11char_traitsIcEENS_9allocatorIcEEEERNS_13basic_istreamIT_T0_EES9_RNS_12basic_stringIS6_S7_T1_EE
Ltmp435:
## %bb.49:                              ##   in Loop: Header=BB4_11 Depth=1
Ltmp436:
	movq	%rax, %rdi
	leaq	332(%rsp), %rsi
	callq	__ZNSt3__113basic_istreamIcNS_11char_traitsIcEEErsERi
Ltmp437:
## %bb.50:                              ##   in Loop: Header=BB4_11 Depth=1
Ltmp438:
	movq	%rax, %rdi
	leaq	824(%rsp), %rsi
	callq	__ZNSt3__113basic_istreamIcNS_11char_traitsIcEEErsERd
Ltmp439:
## %bb.51:                              ##   in Loop: Header=BB4_11 Depth=1
Ltmp440:
	movq	%rax, %rdi
	leaq	816(%rsp), %rsi
	callq	__ZNSt3__113basic_istreamIcNS_11char_traitsIcEEErsERd
Ltmp441:
## %bb.52:                              ##   in Loop: Header=BB4_11 Depth=1
Ltmp442:
	movq	%rax, %rdi
	leaq	808(%rsp), %rsi
	callq	__ZNSt3__113basic_istreamIcNS_11char_traitsIcEEErsERd
Ltmp443:
## %bb.53:                              ##   in Loop: Header=BB4_11 Depth=1
	movq	(%rax), %rcx
	movq	-24(%rcx), %rcx
	testb	$5, 32(%rax,%rcx)
	jne	LBB4_220
## %bb.54:                              ##   in Loop: Header=BB4_11 Depth=1
	movq	$0, 800(%rsp)
	movq	$0, 792(%rsp)
	movq	$0, 784(%rsp)
LBB4_55:                                ##   in Loop: Header=BB4_11 Depth=1
Ltmp447:
	movl	$200, %edi
	callq	__Znwm
	movq	%rax, %rbx
Ltmp448:
## %bb.56:                              ##   in Loop: Header=BB4_11 Depth=1
Ltmp449:
	movq	%rbx, %rdi
	callq	__ZN4AtomC1Ev
Ltmp450:
## %bb.57:                              ##   in Loop: Header=BB4_11 Depth=1
	movq	%rbx, 208(%rsp)
	movq	376(%rsp), %rax
	cmpq	384(%rsp), %rax
	je	LBB4_59
## %bb.58:                              ##   in Loop: Header=BB4_11 Depth=1
	movq	%rbx, (%rax)
	addq	$8, 376(%rsp)
	jmp	LBB4_60
LBB4_59:                                ##   in Loop: Header=BB4_11 Depth=1
Ltmp452:
	leaq	368(%rsp), %rdi
	leaq	208(%rsp), %rsi
	callq	__ZNSt3__16vectorIP4AtomNS_9allocatorIS2_EEE21__push_back_slow_pathIRKS2_EEvOT_
Ltmp453:
LBB4_60:                                ##   in Loop: Header=BB4_11 Depth=1
	addl	$1, 392(%rsp)
	movq	824(%rsp), %rax
	movslq	304(%rsp), %rbx         ## 4-byte Folded Reload
	movq	368(%rsp), %rcx
	movq	(%rcx,%rbx,8), %rdi
	movq	%rax, (%rdi)
	movq	816(%rsp), %rax
	movq	%rax, 8(%rdi)
	movq	808(%rsp), %rax
	movq	%rax, 16(%rdi)
	movq	800(%rsp), %rax
	movq	%rax, 48(%rdi)
	movq	792(%rsp), %rax
	movq	%rax, 56(%rdi)
	movq	784(%rsp), %rax
	movq	%rax, 64(%rdi)
	addq	$176, %rdi
Ltmp454:
	leaq	752(%rsp), %rsi
	callq	__ZNSt3__112basic_stringIcNS_11char_traitsIcEENS_9allocatorIcEEEaSERKS5_
Ltmp455:
## %bb.61:                              ##   in Loop: Header=BB4_11 Depth=1
	movq	368(%rsp), %rax
	movq	(%rax,%rbx,8), %r9
	movq	%rbx, 872(%rsp)         ## 8-byte Spill
	movl	%ebx, 128(%r9)
	movq	224(%rsp), %r8
	movq	232(%rsp), %rdi
	movq	%r8, %rbx
	cmpq	%rdi, %r8
	je	LBB4_80
## %bb.62:                              ##   in Loop: Header=BB4_11 Depth=1
	movb	272(%rsp), %al
	testb	$1, %al
	je	LBB4_64
## %bb.63:                              ##   in Loop: Header=BB4_11 Depth=1
	movq	280(%rsp), %rdx
	movq	288(%rsp), %rsi
	movq	%r8, %rbx
	testq	%rdx, %rdx
	jne	LBB4_65
LBB4_74:                                ##   in Loop: Header=BB4_11 Depth=1
	movq	%r8, %rbx
LBB4_75:                                ##   Parent Loop BB4_11 Depth=1
                                        ## =>  This Inner Loop Header: Depth=2
	movzbl	(%rbx), %eax
	testb	$1, %al
	je	LBB4_77
## %bb.76:                              ##   in Loop: Header=BB4_75 Depth=2
	movq	8(%rbx), %rax
	testq	%rax, %rax
	jne	LBB4_78
	jmp	LBB4_80
LBB4_77:                                ##   in Loop: Header=BB4_75 Depth=2
	shrb	%al
	movzbl	%al, %eax
	testq	%rax, %rax
	je	LBB4_80
LBB4_78:                                ##   in Loop: Header=BB4_75 Depth=2
	addq	$24, %rbx
	cmpq	%rdi, %rbx
	jne	LBB4_75
	jmp	LBB4_79
LBB4_64:                                ##   in Loop: Header=BB4_11 Depth=1
	shrb	%al
	movzbl	%al, %edx
	leaq	273(%rsp), %rax
	movq	%rax, %rsi
	movq	%r8, %rbx
	testq	%rdx, %rdx
	je	LBB4_74
LBB4_65:                                ##   Parent Loop BB4_11 Depth=1
                                        ## =>  This Loop Header: Depth=2
                                        ##       Child Loop BB4_70 Depth 3
	movb	(%rbx), %cl
	movl	%ecx, %eax
	shrb	%al
	movzbl	%al, %r10d
	movq	%r10, %rax
	testb	$1, %cl
	je	LBB4_67
## %bb.66:                              ##   in Loop: Header=BB4_65 Depth=2
	movq	8(%rbx), %rax
LBB4_67:                                ##   in Loop: Header=BB4_65 Depth=2
	cmpq	%rdx, %rax
	jne	LBB4_73
## %bb.68:                              ##   in Loop: Header=BB4_65 Depth=2
	testb	$1, %cl
	jne	LBB4_72
## %bb.69:                              ##   in Loop: Header=BB4_65 Depth=2
	xorl	%ecx, %ecx
LBB4_70:                                ##   Parent Loop BB4_11 Depth=1
                                        ##     Parent Loop BB4_65 Depth=2
                                        ## =>    This Inner Loop Header: Depth=3
	movzbl	1(%rbx,%rcx), %eax
	cmpb	(%rsi,%rcx), %al
	jne	LBB4_73
## %bb.71:                              ##   in Loop: Header=BB4_70 Depth=3
	addq	$1, %rcx
	cmpq	%rcx, %r10
	jne	LBB4_70
	jmp	LBB4_80
LBB4_72:                                ##   in Loop: Header=BB4_65 Depth=2
	movq	%rdi, 856(%rsp)         ## 8-byte Spill
	movq	16(%rbx), %rdi
	movq	%r9, 864(%rsp)          ## 8-byte Spill
	movq	%r8, 848(%rsp)          ## 8-byte Spill
	movq	%rdx, 840(%rsp)         ## 8-byte Spill
	movq	%rsi, 832(%rsp)         ## 8-byte Spill
	callq	_memcmp
	movq	832(%rsp), %rsi         ## 8-byte Reload
	movq	840(%rsp), %rdx         ## 8-byte Reload
	movq	848(%rsp), %r8          ## 8-byte Reload
	movq	856(%rsp), %rdi         ## 8-byte Reload
	movq	864(%rsp), %r9          ## 8-byte Reload
	testl	%eax, %eax
	je	LBB4_80
LBB4_73:                                ##   in Loop: Header=BB4_65 Depth=2
	addq	$24, %rbx
	cmpq	%rdi, %rbx
	jne	LBB4_65
LBB4_79:                                ##   in Loop: Header=BB4_11 Depth=1
	movq	%rdi, %rbx
LBB4_80:                                ##   in Loop: Header=BB4_11 Depth=1
	movq	%rbx, %rax
	subq	%r8, %rax
	sarq	$3, %rax
	movabsq	$-6148914691236517205, %rcx ## imm = 0xAAAAAAAAAAAAAAAB
	imulq	%rcx, %rax
	movl	%eax, 136(%r9)
	cmpq	%rdi, %rbx
	je	LBB4_83
## %bb.81:                              ##   in Loop: Header=BB4_11 Depth=1
	movq	888(%rsp), %rcx
	cltq
	movq	(%rcx,%rax,8), %rbx
	movq	%r9, 208(%rsp)
	movq	16(%rbx), %rax
	cmpq	24(%rbx), %rax
	je	LBB4_86
## %bb.82:                              ##   in Loop: Header=BB4_11 Depth=1
	movq	%r9, (%rax)
	addq	$8, 16(%rbx)
	jmp	LBB4_87
LBB4_83:                                ##   in Loop: Header=BB4_11 Depth=1
	cmpq	240(%rsp), %rdi
	je	LBB4_88
## %bb.84:                              ##   in Loop: Header=BB4_11 Depth=1
Ltmp459:
	leaq	272(%rsp), %rsi
	callq	__ZNSt3__112basic_stringIcNS_11char_traitsIcEENS_9allocatorIcEEEC1ERKS5_
Ltmp460:
## %bb.85:                              ##   in Loop: Header=BB4_11 Depth=1
	addq	$24, 232(%rsp)
	jmp	LBB4_89
LBB4_86:                                ##   in Loop: Header=BB4_11 Depth=1
	leaq	8(%rbx), %rdi
Ltmp457:
	leaq	208(%rsp), %rsi
	callq	__ZNSt3__16vectorIP4AtomNS_9allocatorIS2_EEE21__push_back_slow_pathIRKS2_EEvOT_
Ltmp458:
LBB4_87:                                ##   in Loop: Header=BB4_11 Depth=1
	addl	$1, (%rbx)
	movq	208(%rsp), %rax
	vmovsd	152(%rax), %xmm0        ## xmm0 = mem[0],zero
	vaddsd	152(%rbx), %xmm0, %xmm0
	vmovsd	%xmm0, 152(%rbx)
	jmp	LBB4_95
LBB4_88:                                ##   in Loop: Header=BB4_11 Depth=1
Ltmp461:
	leaq	224(%rsp), %rdi
	leaq	272(%rsp), %rsi
	callq	__ZNSt3__16vectorINS_12basic_stringIcNS_11char_traitsIcEENS_9allocatorIcEEEENS4_IS6_EEE21__push_back_slow_pathIRKS6_EEvOT_
Ltmp462:
LBB4_89:                                ##   in Loop: Header=BB4_11 Depth=1
Ltmp464:
	movl	$160, %edi
	callq	__Znwm
	movq	%rax, %rbx
Ltmp465:
## %bb.90:                              ##   in Loop: Header=BB4_11 Depth=1
	movq	%rbx, %rdi
	addq	$8, %rdi
	movl	$0, (%rbx)
	vpxor	%xmm0, %xmm0, %xmm0
	vmovdqu	%ymm0, 96(%rbx)
	vmovdqu	%ymm0, 72(%rbx)
	vmovdqu	%ymm0, 40(%rbx)
	vmovdqu	%ymm0, 8(%rbx)
	movq	368(%rsp), %rax
	movq	872(%rsp), %rcx         ## 8-byte Reload
	movq	(%rax,%rcx,8), %rax
	movq	%rax, 208(%rsp)
Ltmp466:
	leaq	208(%rsp), %rsi
	vzeroupper
	callq	__ZNSt3__16vectorIP4AtomNS_9allocatorIS2_EEE21__push_back_slow_pathIRKS2_EEvOT_
Ltmp467:
## %bb.91:                              ##   in Loop: Header=BB4_11 Depth=1
	movq	208(%rsp), %rax
	vmovsd	152(%rax), %xmm0        ## xmm0 = mem[0],zero
	addl	$1, (%rbx)
	vaddsd	152(%rbx), %xmm0, %xmm0
	vmovsd	%xmm0, 152(%rbx)
	movq	%rbx, 208(%rsp)
	movq	896(%rsp), %rax
	cmpq	904(%rsp), %rax
	je	LBB4_93
## %bb.92:                              ##   in Loop: Header=BB4_11 Depth=1
	movq	%rbx, (%rax)
	addq	$8, 896(%rsp)
	jmp	LBB4_94
LBB4_93:                                ##   in Loop: Header=BB4_11 Depth=1
Ltmp468:
	leaq	888(%rsp), %rdi
	leaq	208(%rsp), %rsi
	callq	__ZNSt3__16vectorIP8ParticleNS_9allocatorIS2_EEE21__push_back_slow_pathIRKS2_EEvOT_
Ltmp469:
LBB4_94:                                ##   in Loop: Header=BB4_11 Depth=1
	addl	$1, 880(%rsp)
LBB4_95:                                ##   in Loop: Header=BB4_11 Depth=1
	movq	184(%rsp), %rax         ## 8-byte Reload
	movq	%rax, 480(%rsp)
	movq	176(%rsp), %rax         ## 8-byte Reload
	movq	%rax, 600(%rsp)
	movq	200(%rsp), %rax         ## 8-byte Reload
	movq	%rax, 496(%rsp)
	testb	$1, 560(%rsp)
	je	LBB4_97
## %bb.96:                              ##   in Loop: Header=BB4_11 Depth=1
	movq	576(%rsp), %rdi
	callq	__ZdlPv
LBB4_97:                                ##   in Loop: Header=BB4_11 Depth=1
	movq	304(%rsp), %rax         ## 8-byte Reload
	addl	$1, %eax
	movq	%rax, 304(%rsp)         ## 8-byte Spill
LBB4_98:                                ##   in Loop: Header=BB4_11 Depth=1
	leaq	496(%rsp), %rdi
	callq	__ZNSt3__115basic_streambufIcNS_11char_traitsIcEEED2Ev
	movq	%r15, %rdi
	movq	192(%rsp), %rsi         ## 8-byte Reload
	callq	__ZNSt3__113basic_istreamIcNS_11char_traitsIcEEED2Ev
	leaq	600(%rsp), %rdi
	callq	__ZNSt3__19basic_iosIcNS_11char_traitsIcEEED2Ev
	movl	172(%rsp), %ecx         ## 4-byte Reload
LBB4_99:                                ##   in Loop: Header=BB4_11 Depth=1
	movl	220(%rsp), %eax
	addl	$2, %eax
	cmpl	%eax, %ecx
	jne	LBB4_10
## %bb.100:                             ##   in Loop: Header=BB4_11 Depth=1
	movq	__ZTCNSt3__119basic_istringstreamIcNS_11char_traitsIcEENS_9allocatorIcEEEE0_NS_13basic_istreamIcS2_EE@GOTPCREL(%rip), %rax
	movq	%rax, %rcx
	leaq	64(%rcx), %rax
	movq	%rax, 600(%rsp)
	leaq	24(%rcx), %rax
	vmovq	%rax, %xmm0
	vmovdqa	%xmm0, 480(%rsp)
Ltmp471:
	leaq	600(%rsp), %rdi
	leaq	496(%rsp), %rbx
	movq	%rbx, %rsi
	callq	__ZNSt3__18ios_base4initEPv
Ltmp472:
## %bb.101:                             ##   in Loop: Header=BB4_11 Depth=1
	movq	$0, 736(%rsp)
	movl	$-1, 744(%rsp)
	movq	__ZTVNSt3__119basic_istringstreamIcNS_11char_traitsIcEENS_9allocatorIcEEEE@GOTPCREL(%rip), %rax
	leaq	24(%rax), %rcx
	movq	%rcx, 176(%rsp)         ## 8-byte Spill
	movq	%rcx, 480(%rsp)
	leaq	64(%rax), %rax
	movq	%rax, 184(%rsp)         ## 8-byte Spill
	movq	%rax, 600(%rsp)
Ltmp474:
	movq	%rbx, %rdi
	callq	__ZNSt3__115basic_streambufIcNS_11char_traitsIcEEEC2Ev
Ltmp475:
## %bb.102:                             ##   in Loop: Header=BB4_11 Depth=1
	movq	200(%rsp), %rax         ## 8-byte Reload
	movq	%rax, 496(%rsp)
	leaq	600(%rsp), %rax
	vpxor	%xmm0, %xmm0, %xmm0
	vmovdqu	%ymm0, -40(%rax)
	movl	$8, 592(%rsp)
Ltmp477:
	movq	%rbx, %rdi
	movq	%r13, %rsi
	vzeroupper
	callq	__ZNSt3__115basic_stringbufIcNS_11char_traitsIcEENS_9allocatorIcEEE3strERKNS_12basic_stringIcS2_S4_EE
Ltmp478:
## %bb.103:                             ##   in Loop: Header=BB4_11 Depth=1
Ltmp480:
	movq	%r15, %rdi
	leaq	264(%rsp), %rsi
	callq	__ZNSt3__113basic_istreamIcNS_11char_traitsIcEEErsERd
Ltmp481:
## %bb.104:                             ##   in Loop: Header=BB4_11 Depth=1
Ltmp482:
	movq	%rax, %rdi
	leaq	320(%rsp), %rsi
	callq	__ZNSt3__113basic_istreamIcNS_11char_traitsIcEEErsERd
Ltmp483:
## %bb.105:                             ##   in Loop: Header=BB4_11 Depth=1
Ltmp484:
	movq	%rax, %rdi
	leaq	312(%rsp), %rsi
	callq	__ZNSt3__113basic_istreamIcNS_11char_traitsIcEEErsERd
Ltmp485:
## %bb.106:                             ##   in Loop: Header=BB4_11 Depth=1
	movq	(%rax), %rcx
	movq	-24(%rcx), %rcx
	testb	$5, 32(%rax,%rcx)
	je	LBB4_117
## %bb.107:                             ##   in Loop: Header=BB4_11 Depth=1
Ltmp486:
	movq	%r15, %rdi
	leaq	264(%rsp), %rsi
	callq	__ZNSt3__113basic_istreamIcNS_11char_traitsIcEEErsERd
Ltmp487:
## %bb.108:                             ##   in Loop: Header=BB4_11 Depth=1
Ltmp488:
	movq	%rax, %rdi
	leaq	320(%rsp), %rsi
	callq	__ZNSt3__113basic_istreamIcNS_11char_traitsIcEEErsERd
Ltmp489:
## %bb.109:                             ##   in Loop: Header=BB4_11 Depth=1
Ltmp490:
	movq	%rax, %rdi
	leaq	312(%rsp), %rsi
	callq	__ZNSt3__113basic_istreamIcNS_11char_traitsIcEEErsERd
Ltmp491:
## %bb.110:                             ##   in Loop: Header=BB4_11 Depth=1
Ltmp492:
	movq	%rax, %rdi
	leaq	1080(%rsp), %rsi
	callq	__ZNSt3__113basic_istreamIcNS_11char_traitsIcEEErsERd
Ltmp493:
## %bb.111:                             ##   in Loop: Header=BB4_11 Depth=1
Ltmp494:
	movq	%rax, %rdi
	leaq	1072(%rsp), %rsi
	callq	__ZNSt3__113basic_istreamIcNS_11char_traitsIcEEErsERd
Ltmp495:
## %bb.112:                             ##   in Loop: Header=BB4_11 Depth=1
Ltmp496:
	movq	%rax, %rdi
	leaq	1064(%rsp), %rsi
	callq	__ZNSt3__113basic_istreamIcNS_11char_traitsIcEEErsERd
Ltmp497:
## %bb.113:                             ##   in Loop: Header=BB4_11 Depth=1
	movq	(%rax), %rcx
	movq	-24(%rcx), %rcx
	testb	$5, 32(%rax,%rcx)
	jne	LBB4_221
## %bb.114:                             ##   in Loop: Header=BB4_11 Depth=1
	vmovq	264(%rsp), %xmm0        ## xmm0 = mem[0],zero
	vmovsd	320(%rsp), %xmm1        ## xmm1 = mem[0],zero
	vmovsd	312(%rsp), %xmm2        ## xmm2 = mem[0],zero
	movb	$3, %al
	leaq	L_.str.53(%rip), %rdi
	callq	_printf
	movq	176(%rsp), %rax         ## 8-byte Reload
	movq	%rax, 480(%rsp)
	movq	184(%rsp), %rax         ## 8-byte Reload
	movq	%rax, 600(%rsp)
	movq	200(%rsp), %rax         ## 8-byte Reload
	movq	%rax, 496(%rsp)
	testb	$1, 560(%rsp)
	je	LBB4_116
## %bb.115:                             ##   in Loop: Header=BB4_11 Depth=1
	movq	576(%rsp), %rdi
	callq	__ZdlPv
LBB4_116:                               ##   in Loop: Header=BB4_11 Depth=1
	leaq	496(%rsp), %rdi
	callq	__ZNSt3__115basic_streambufIcNS_11char_traitsIcEEED2Ev
	movq	%r15, %rdi
	movq	192(%rsp), %rsi         ## 8-byte Reload
	callq	__ZNSt3__113basic_istreamIcNS_11char_traitsIcEEED2Ev
	leaq	600(%rsp), %rdi
	callq	__ZNSt3__19basic_iosIcNS_11char_traitsIcEEED2Ev
	movl	172(%rsp), %ecx         ## 4-byte Reload
	jmp	LBB4_10
LBB4_117:
	vmovq	264(%rsp), %xmm0        ## xmm0 = mem[0],zero
	vmovsd	320(%rsp), %xmm1        ## xmm1 = mem[0],zero
	vmovsd	312(%rsp), %xmm2        ## xmm2 = mem[0],zero
	leaq	L_.str.52(%rip), %rdi
	movb	$3, %al
	callq	_printf
	movq	264(%rsp), %rax
	movq	256(%rsp), %rcx         ## 8-byte Reload
	movq	%rax, (%rcx)
	movq	%rax, 8(%rcx)
	movq	%rax, 16(%rcx)
	movq	176(%rsp), %rax         ## 8-byte Reload
	movq	%rax, 480(%rsp)
	movq	184(%rsp), %rax         ## 8-byte Reload
	movq	%rax, 600(%rsp)
	movq	200(%rsp), %rax         ## 8-byte Reload
	movq	%rax, 496(%rsp)
	testb	$1, 560(%rsp)
	je	LBB4_119
## %bb.118:
	movq	576(%rsp), %rdi
	callq	__ZdlPv
LBB4_119:
	leaq	496(%rsp), %rdi
	callq	__ZNSt3__115basic_streambufIcNS_11char_traitsIcEEED2Ev
	leaq	480(%rsp), %rdi
	movq	192(%rsp), %rsi         ## 8-byte Reload
	callq	__ZNSt3__113basic_istreamIcNS_11char_traitsIcEEED2Ev
	leaq	600(%rsp), %rdi
	callq	__ZNSt3__19basic_iosIcNS_11char_traitsIcEEED2Ev
LBB4_120:
	movl	220(%rsp), %eax
	cmpl	392(%rsp), %eax
	jne	LBB4_226
## %bb.121:
	leaq	912(%rsp), %rdi
	movq	368(%rsp), %rsi
	movq	376(%rsp), %rdx
Ltmp504:
	leaq	1264(%rsp), %r12
	movq	160(%rsp), %r13         ## 8-byte Reload
	callq	__ZNSt3__16vectorIP4AtomNS_9allocatorIS2_EEE6assignIPS2_EENS_9enable_ifIXaasr21__is_forward_iteratorIT_EE5valuesr16is_constructibleIS2_NS_15iterator_traitsIS9_E9referenceEEE5valueEvE4typeES9_S9_
Ltmp505:
## %bb.122:
	movl	392(%rsp), %eax
	movl	%eax, 936(%rsp)
	movq	400(%rsp), %rbx
	movq	408(%rsp), %r15
	movq	416(%rsp), %r14
	cmpq	%r15, 952(%rsp)
	jne	LBB4_124
## %bb.123:
	cmpq	%r14, 960(%rsp)
	je	LBB4_127
LBB4_124:
Ltmp506:
	leaq	944(%rsp), %rdi
	movq	%r15, %rsi
	movq	%r14, %rdx
	callq	__ZN5Eigen15PlainObjectBaseINS_6MatrixIdLin1ELin1ELi0ELin1ELin1EEEE6resizeEll
Ltmp507:
## %bb.125:
	cmpq	%r15, 952(%rsp)
	jne	LBB4_227
## %bb.126:
	cmpq	%r14, 960(%rsp)
	jne	LBB4_227
LBB4_127:
	movq	944(%rsp), %rax
	imulq	%r15, %r14
	movq	%r14, %r10
	sarq	$63, %r10
	shrq	$62, %r10
	addq	%r14, %r10
	movq	%r10, %rcx
	andq	$-4, %rcx
	cmpq	$4, %r14
	jl	LBB4_135
## %bb.128:
	cmpq	$3, %rcx
	movl	$4, %edx
	cmovgq	%rcx, %rdx
	addq	$-1, %rdx
	movq	%rdx, %rdi
	shrq	$2, %rdi
	leal	1(%rdi), %esi
	andl	$7, %esi
	cmpq	$28, %rdx
	jae	LBB4_130
## %bb.129:
	xorl	%edi, %edi
	testq	%rsi, %rsi
	jne	LBB4_133
	jmp	LBB4_135
LBB4_130:
	leaq	-1(%rsi), %rdx
	subq	%rdi, %rdx
	xorl	%edi, %edi
	.p2align	4, 0x90
LBB4_131:                               ## =>This Inner Loop Header: Depth=1
	vmovups	(%rbx,%rdi,8), %ymm0
	vmovups	%ymm0, (%rax,%rdi,8)
	vmovups	32(%rbx,%rdi,8), %ymm0
	vmovups	%ymm0, 32(%rax,%rdi,8)
	vmovups	64(%rbx,%rdi,8), %ymm0
	vmovups	%ymm0, 64(%rax,%rdi,8)
	vmovups	96(%rbx,%rdi,8), %ymm0
	vmovups	%ymm0, 96(%rax,%rdi,8)
	vmovups	128(%rbx,%rdi,8), %ymm0
	vmovups	%ymm0, 128(%rax,%rdi,8)
	vmovups	160(%rbx,%rdi,8), %ymm0
	vmovups	%ymm0, 160(%rax,%rdi,8)
	vmovups	192(%rbx,%rdi,8), %ymm0
	vmovups	%ymm0, 192(%rax,%rdi,8)
	vmovdqu	224(%rbx,%rdi,8), %ymm0
	vmovdqu	%ymm0, 224(%rax,%rdi,8)
	addq	$32, %rdi
	addq	$8, %rdx
	jne	LBB4_131
## %bb.132:
	testq	%rsi, %rsi
	je	LBB4_135
LBB4_133:
	shlq	$3, %rdi
	negq	%rsi
	.p2align	4, 0x90
LBB4_134:                               ## =>This Inner Loop Header: Depth=1
	vmovdqu	(%rbx,%rdi), %ymm0
	vmovdqu	%ymm0, (%rax,%rdi)
	addq	$32, %rdi
	addq	$1, %rsi
	jne	LBB4_134
LBB4_135:
	movq	%r14, %r9
	subq	%rcx, %r9
	jle	LBB4_154
## %bb.136:
	cmpq	$16, %r9
	jb	LBB4_148
## %bb.137:
	leaq	(%rax,%rcx,8), %rdx
	leaq	(%rbx,%r14,8), %rsi
	cmpq	%rsi, %rdx
	jae	LBB4_139
## %bb.138:
	leaq	(%rax,%r14,8), %rdx
	leaq	(%rbx,%rcx,8), %rsi
	cmpq	%rdx, %rsi
	jb	LBB4_148
LBB4_139:
	movq	%r9, %r8
	andq	$-16, %r8
	leaq	-16(%r8), %rdx
	movq	%rdx, %rsi
	shrq	$4, %rsi
	leal	1(%rsi), %r11d
	andl	$3, %r11d
	cmpq	$48, %rdx
	jae	LBB4_141
## %bb.140:
	xorl	%esi, %esi
	testq	%r11, %r11
	jne	LBB4_144
	jmp	LBB4_146
LBB4_141:
	leaq	(%rbx,%rcx,8), %rdx
	addq	$480, %rdx              ## imm = 0x1E0
	leaq	(%rax,%rcx,8), %rdi
	addq	$480, %rdi              ## imm = 0x1E0
	leaq	-1(%r11), %r15
	subq	%rsi, %r15
	xorl	%esi, %esi
	.p2align	4, 0x90
LBB4_142:                               ## =>This Inner Loop Header: Depth=1
	vmovups	-480(%rdx,%rsi,8), %ymm0
	vmovups	-448(%rdx,%rsi,8), %ymm1
	vmovups	-416(%rdx,%rsi,8), %ymm2
	vmovups	-384(%rdx,%rsi,8), %ymm3
	vmovups	%ymm0, -480(%rdi,%rsi,8)
	vmovups	%ymm1, -448(%rdi,%rsi,8)
	vmovups	%ymm2, -416(%rdi,%rsi,8)
	vmovups	%ymm3, -384(%rdi,%rsi,8)
	vmovups	-352(%rdx,%rsi,8), %ymm0
	vmovups	-320(%rdx,%rsi,8), %ymm1
	vmovups	-288(%rdx,%rsi,8), %ymm2
	vmovups	-256(%rdx,%rsi,8), %ymm3
	vmovups	%ymm0, -352(%rdi,%rsi,8)
	vmovups	%ymm1, -320(%rdi,%rsi,8)
	vmovups	%ymm2, -288(%rdi,%rsi,8)
	vmovups	%ymm3, -256(%rdi,%rsi,8)
	vmovups	-224(%rdx,%rsi,8), %ymm0
	vmovups	-192(%rdx,%rsi,8), %ymm1
	vmovups	-160(%rdx,%rsi,8), %ymm2
	vmovups	-128(%rdx,%rsi,8), %ymm3
	vmovups	%ymm0, -224(%rdi,%rsi,8)
	vmovups	%ymm1, -192(%rdi,%rsi,8)
	vmovups	%ymm2, -160(%rdi,%rsi,8)
	vmovups	%ymm3, -128(%rdi,%rsi,8)
	vmovdqu	-96(%rdx,%rsi,8), %ymm0
	vmovups	-64(%rdx,%rsi,8), %ymm1
	vmovups	-32(%rdx,%rsi,8), %ymm2
	vmovups	(%rdx,%rsi,8), %ymm3
	vmovdqu	%ymm0, -96(%rdi,%rsi,8)
	vmovups	%ymm1, -64(%rdi,%rsi,8)
	vmovups	%ymm2, -32(%rdi,%rsi,8)
	vmovups	%ymm3, (%rdi,%rsi,8)
	addq	$64, %rsi
	addq	$4, %r15
	jne	LBB4_142
## %bb.143:
	testq	%r11, %r11
	je	LBB4_146
LBB4_144:
	sarq	$2, %r10
	shlq	$5, %r10
	leaq	(%r10,%rsi,8), %rdx
	addq	$96, %rdx
	negq	%r11
	.p2align	4, 0x90
LBB4_145:                               ## =>This Inner Loop Header: Depth=1
	vmovdqu	-96(%rbx,%rdx), %ymm0
	vmovups	-64(%rbx,%rdx), %ymm1
	vmovups	-32(%rbx,%rdx), %ymm2
	vmovups	(%rbx,%rdx), %ymm3
	vmovdqu	%ymm0, -96(%rax,%rdx)
	vmovups	%ymm1, -64(%rax,%rdx)
	vmovups	%ymm2, -32(%rax,%rdx)
	vmovups	%ymm3, (%rax,%rdx)
	subq	$-128, %rdx
	addq	$1, %r11
	jne	LBB4_145
LBB4_146:
	cmpq	%r8, %r9
	je	LBB4_154
## %bb.147:
	addq	%r8, %rcx
LBB4_148:
	movl	%r14d, %esi
	subl	%ecx, %esi
	leaq	-1(%r14), %rdx
	subq	%rcx, %rdx
	andq	$7, %rsi
	je	LBB4_151
## %bb.149:
	negq	%rsi
	.p2align	4, 0x90
LBB4_150:                               ## =>This Inner Loop Header: Depth=1
	movq	(%rbx,%rcx,8), %rdi
	movq	%rdi, (%rax,%rcx,8)
	addq	$1, %rcx
	addq	$1, %rsi
	jne	LBB4_150
LBB4_151:
	cmpq	$7, %rdx
	jb	LBB4_154
## %bb.152:
	subq	%rcx, %r14
	leaq	(%rbx,%rcx,8), %rdx
	addq	$56, %rdx
	leaq	(%rax,%rcx,8), %rax
	addq	$56, %rax
	xorl	%ecx, %ecx
	.p2align	4, 0x90
LBB4_153:                               ## =>This Inner Loop Header: Depth=1
	movq	-56(%rdx,%rcx,8), %rsi
	movq	%rsi, -56(%rax,%rcx,8)
	movq	-48(%rdx,%rcx,8), %rsi
	movq	%rsi, -48(%rax,%rcx,8)
	movq	-40(%rdx,%rcx,8), %rsi
	movq	%rsi, -40(%rax,%rcx,8)
	movq	-32(%rdx,%rcx,8), %rsi
	movq	%rsi, -32(%rax,%rcx,8)
	movq	-24(%rdx,%rcx,8), %rsi
	movq	%rsi, -24(%rax,%rcx,8)
	movq	-16(%rdx,%rcx,8), %rsi
	movq	%rsi, -16(%rax,%rcx,8)
	movq	-8(%rdx,%rcx,8), %rsi
	movq	%rsi, -8(%rax,%rcx,8)
	movq	(%rdx,%rcx,8), %rsi
	movq	%rsi, (%rax,%rcx,8)
	addq	$8, %rcx
	cmpq	%rcx, %r14
	jne	LBB4_153
LBB4_154:
	leaq	968(%rsp), %rdi
	movq	424(%rsp), %rsi
	movq	432(%rsp), %rdx
Ltmp510:
	vzeroupper
	callq	__ZNSt3__16vectorINS0_IN5Eigen6MatrixIdLi3ELi1ELi0ELi3ELi1EEENS_9allocatorIS3_EEEENS4_IS6_EEE6assignIPS6_EENS_9enable_ifIXaasr21__is_forward_iteratorIT_EE5valuesr16is_constructibleIS6_NS_15iterator_traitsISC_E9referenceEEE5valueEvE4typeESC_SC_
Ltmp511:
## %bb.155:
	movq	448(%rsp), %rbx
	movq	456(%rsp), %r15
	movq	464(%rsp), %r14
	cmpq	%r15, 1000(%rsp)
	jne	LBB4_157
## %bb.156:
	cmpq	%r14, 1008(%rsp)
	je	LBB4_160
LBB4_157:
	leaq	992(%rsp), %rdi
Ltmp512:
	movq	%r15, %rsi
	movq	%r14, %rdx
	callq	__ZN5Eigen15PlainObjectBaseINS_6MatrixIdLin1ELin1ELi0ELin1ELin1EEEE6resizeEll
Ltmp513:
## %bb.158:
	cmpq	%r15, 1000(%rsp)
	jne	LBB4_228
## %bb.159:
	cmpq	%r14, 1008(%rsp)
	jne	LBB4_228
LBB4_160:
	movq	992(%rsp), %rax
	imulq	%r15, %r14
	movq	%r14, %r10
	sarq	$63, %r10
	shrq	$62, %r10
	addq	%r14, %r10
	movq	%r10, %rcx
	andq	$-4, %rcx
	cmpq	$4, %r14
	jl	LBB4_168
## %bb.161:
	cmpq	$3, %rcx
	movl	$4, %edx
	cmovgq	%rcx, %rdx
	addq	$-1, %rdx
	movq	%rdx, %rdi
	shrq	$2, %rdi
	leal	1(%rdi), %esi
	andl	$7, %esi
	cmpq	$28, %rdx
	jae	LBB4_163
## %bb.162:
	xorl	%edi, %edi
	testq	%rsi, %rsi
	jne	LBB4_166
	jmp	LBB4_168
LBB4_163:
	leaq	-1(%rsi), %rdx
	subq	%rdi, %rdx
	xorl	%edi, %edi
	.p2align	4, 0x90
LBB4_164:                               ## =>This Inner Loop Header: Depth=1
	vmovups	(%rbx,%rdi,8), %ymm0
	vmovups	%ymm0, (%rax,%rdi,8)
	vmovups	32(%rbx,%rdi,8), %ymm0
	vmovups	%ymm0, 32(%rax,%rdi,8)
	vmovups	64(%rbx,%rdi,8), %ymm0
	vmovups	%ymm0, 64(%rax,%rdi,8)
	vmovups	96(%rbx,%rdi,8), %ymm0
	vmovups	%ymm0, 96(%rax,%rdi,8)
	vmovups	128(%rbx,%rdi,8), %ymm0
	vmovups	%ymm0, 128(%rax,%rdi,8)
	vmovups	160(%rbx,%rdi,8), %ymm0
	vmovups	%ymm0, 160(%rax,%rdi,8)
	vmovups	192(%rbx,%rdi,8), %ymm0
	vmovups	%ymm0, 192(%rax,%rdi,8)
	vmovdqu	224(%rbx,%rdi,8), %ymm0
	vmovdqu	%ymm0, 224(%rax,%rdi,8)
	addq	$32, %rdi
	addq	$8, %rdx
	jne	LBB4_164
## %bb.165:
	testq	%rsi, %rsi
	je	LBB4_168
LBB4_166:
	shlq	$3, %rdi
	negq	%rsi
	.p2align	4, 0x90
LBB4_167:                               ## =>This Inner Loop Header: Depth=1
	vmovdqu	(%rbx,%rdi), %ymm0
	vmovdqu	%ymm0, (%rax,%rdi)
	addq	$32, %rdi
	addq	$1, %rsi
	jne	LBB4_167
LBB4_168:
	movq	%r14, %r9
	subq	%rcx, %r9
	jle	LBB4_187
## %bb.169:
	cmpq	$16, %r9
	jb	LBB4_181
## %bb.170:
	leaq	(%rax,%rcx,8), %rdx
	leaq	(%rbx,%r14,8), %rsi
	cmpq	%rsi, %rdx
	jae	LBB4_172
## %bb.171:
	leaq	(%rax,%r14,8), %rdx
	leaq	(%rbx,%rcx,8), %rsi
	cmpq	%rdx, %rsi
	jb	LBB4_181
LBB4_172:
	movq	%r9, %r8
	andq	$-16, %r8
	leaq	-16(%r8), %rdx
	movq	%rdx, %rsi
	shrq	$4, %rsi
	leal	1(%rsi), %r11d
	andl	$3, %r11d
	cmpq	$48, %rdx
	jae	LBB4_174
## %bb.173:
	xorl	%esi, %esi
	testq	%r11, %r11
	jne	LBB4_177
	jmp	LBB4_179
LBB4_174:
	leaq	(%rbx,%rcx,8), %rdx
	addq	$480, %rdx              ## imm = 0x1E0
	leaq	(%rax,%rcx,8), %rdi
	addq	$480, %rdi              ## imm = 0x1E0
	leaq	-1(%r11), %r15
	subq	%rsi, %r15
	xorl	%esi, %esi
	.p2align	4, 0x90
LBB4_175:                               ## =>This Inner Loop Header: Depth=1
	vmovups	-480(%rdx,%rsi,8), %ymm0
	vmovups	-448(%rdx,%rsi,8), %ymm1
	vmovups	-416(%rdx,%rsi,8), %ymm2
	vmovups	-384(%rdx,%rsi,8), %ymm3
	vmovups	%ymm0, -480(%rdi,%rsi,8)
	vmovups	%ymm1, -448(%rdi,%rsi,8)
	vmovups	%ymm2, -416(%rdi,%rsi,8)
	vmovups	%ymm3, -384(%rdi,%rsi,8)
	vmovups	-352(%rdx,%rsi,8), %ymm0
	vmovups	-320(%rdx,%rsi,8), %ymm1
	vmovups	-288(%rdx,%rsi,8), %ymm2
	vmovups	-256(%rdx,%rsi,8), %ymm3
	vmovups	%ymm0, -352(%rdi,%rsi,8)
	vmovups	%ymm1, -320(%rdi,%rsi,8)
	vmovups	%ymm2, -288(%rdi,%rsi,8)
	vmovups	%ymm3, -256(%rdi,%rsi,8)
	vmovups	-224(%rdx,%rsi,8), %ymm0
	vmovups	-192(%rdx,%rsi,8), %ymm1
	vmovups	-160(%rdx,%rsi,8), %ymm2
	vmovups	-128(%rdx,%rsi,8), %ymm3
	vmovups	%ymm0, -224(%rdi,%rsi,8)
	vmovups	%ymm1, -192(%rdi,%rsi,8)
	vmovups	%ymm2, -160(%rdi,%rsi,8)
	vmovups	%ymm3, -128(%rdi,%rsi,8)
	vmovdqu	-96(%rdx,%rsi,8), %ymm0
	vmovups	-64(%rdx,%rsi,8), %ymm1
	vmovups	-32(%rdx,%rsi,8), %ymm2
	vmovups	(%rdx,%rsi,8), %ymm3
	vmovdqu	%ymm0, -96(%rdi,%rsi,8)
	vmovups	%ymm1, -64(%rdi,%rsi,8)
	vmovups	%ymm2, -32(%rdi,%rsi,8)
	vmovups	%ymm3, (%rdi,%rsi,8)
	addq	$64, %rsi
	addq	$4, %r15
	jne	LBB4_175
## %bb.176:
	testq	%r11, %r11
	je	LBB4_179
LBB4_177:
	sarq	$2, %r10
	shlq	$5, %r10
	leaq	(%r10,%rsi,8), %rdx
	addq	$96, %rdx
	negq	%r11
	.p2align	4, 0x90
LBB4_178:                               ## =>This Inner Loop Header: Depth=1
	vmovdqu	-96(%rbx,%rdx), %ymm0
	vmovups	-64(%rbx,%rdx), %ymm1
	vmovups	-32(%rbx,%rdx), %ymm2
	vmovups	(%rbx,%rdx), %ymm3
	vmovdqu	%ymm0, -96(%rax,%rdx)
	vmovups	%ymm1, -64(%rax,%rdx)
	vmovups	%ymm2, -32(%rax,%rdx)
	vmovups	%ymm3, (%rax,%rdx)
	subq	$-128, %rdx
	addq	$1, %r11
	jne	LBB4_178
LBB4_179:
	cmpq	%r8, %r9
	je	LBB4_187
## %bb.180:
	addq	%r8, %rcx
LBB4_181:
	movl	%r14d, %esi
	subl	%ecx, %esi
	leaq	-1(%r14), %rdx
	subq	%rcx, %rdx
	andq	$7, %rsi
	je	LBB4_184
## %bb.182:
	negq	%rsi
	.p2align	4, 0x90
LBB4_183:                               ## =>This Inner Loop Header: Depth=1
	movq	(%rbx,%rcx,8), %rdi
	movq	%rdi, (%rax,%rcx,8)
	addq	$1, %rcx
	addq	$1, %rsi
	jne	LBB4_183
LBB4_184:
	cmpq	$7, %rdx
	jb	LBB4_187
## %bb.185:
	subq	%rcx, %r14
	leaq	(%rbx,%rcx,8), %rdx
	addq	$56, %rdx
	leaq	(%rax,%rcx,8), %rax
	addq	$56, %rax
	xorl	%ecx, %ecx
	.p2align	4, 0x90
LBB4_186:                               ## =>This Inner Loop Header: Depth=1
	movq	-56(%rdx,%rcx,8), %rsi
	movq	%rsi, -56(%rax,%rcx,8)
	movq	-48(%rdx,%rcx,8), %rsi
	movq	%rsi, -48(%rax,%rcx,8)
	movq	-40(%rdx,%rcx,8), %rsi
	movq	%rsi, -40(%rax,%rcx,8)
	movq	-32(%rdx,%rcx,8), %rsi
	movq	%rsi, -32(%rax,%rcx,8)
	movq	-24(%rdx,%rcx,8), %rsi
	movq	%rsi, -24(%rax,%rcx,8)
	movq	-16(%rdx,%rcx,8), %rsi
	movq	%rsi, -16(%rax,%rcx,8)
	movq	-8(%rdx,%rcx,8), %rsi
	movq	%rsi, -8(%rax,%rcx,8)
	movq	(%rdx,%rcx,8), %rsi
	movq	%rsi, (%rax,%rcx,8)
	addq	$8, %rcx
	cmpq	%rcx, %r14
	jne	LBB4_186
LBB4_187:
	movl	880(%rsp), %edx
	movl	936(%rsp), %esi
	leaq	L_.str.57(%rip), %rdi
	xorl	%eax, %eax
	vzeroupper
	callq	_printf
Ltmp516:
	leaq	880(%rsp), %rsi
	movq	248(%rsp), %rdi         ## 8-byte Reload
	callq	__ZN9ParticlesC2ERKS_
Ltmp517:
## %bb.188:
	vpxor	%xmm0, %xmm0, %xmm0
	movq	248(%rsp), %rbx         ## 8-byte Reload
	vmovdqu	%xmm0, 184(%rbx)
	movq	$0, 200(%rbx)
Ltmp519:
	movl	$24, %edi
	callq	__Znwm
Ltmp520:
## %bb.189:
	movq	%rax, 184(%rbx)
	movq	%rax, %rcx
	addq	$24, %rcx
	movq	%rcx, 200(%rbx)
	movq	256(%rsp), %rsi         ## 8-byte Reload
	movq	16(%rsi), %rdx
	movq	%rdx, 16(%rax)
	vmovups	(%rsi), %xmm0
	vmovups	%xmm0, (%rax)
	movq	%rcx, 192(%rbx)
	movq	448(%rsp), %rax
	testq	%rax, %rax
	leaq	1672(%rsp), %r15
	je	LBB4_191
## %bb.190:
	movq	-8(%rax), %rdi
	callq	_free
LBB4_191:
	movq	424(%rsp), %r14
	testq	%r14, %r14
	je	LBB4_199
## %bb.192:
	movq	432(%rsp), %rax
	cmpq	%r14, %rax
	je	LBB4_197
	.p2align	4, 0x90
LBB4_193:                               ## =>This Inner Loop Header: Depth=1
	leaq	-24(%rax), %rbx
	movq	-24(%rax), %rdi
	testq	%rdi, %rdi
	je	LBB4_195
## %bb.194:                             ##   in Loop: Header=BB4_193 Depth=1
	movq	%rdi, -16(%rax)
	callq	__ZdlPv
LBB4_195:                               ##   in Loop: Header=BB4_193 Depth=1
	movq	%rbx, %rax
	cmpq	%rbx, %r14
	jne	LBB4_193
## %bb.196:
	movq	424(%rsp), %rdi
	movq	248(%rsp), %rbx         ## 8-byte Reload
	jmp	LBB4_198
LBB4_197:
	movq	%r14, %rdi
LBB4_198:
	movq	%r14, 432(%rsp)
	callq	__ZdlPv
LBB4_199:
	movq	400(%rsp), %rax
	testq	%rax, %rax
	je	LBB4_201
## %bb.200:
	movq	-8(%rax), %rdi
	callq	_free
LBB4_201:
	movq	368(%rsp), %rdi
	testq	%rdi, %rdi
	je	LBB4_203
## %bb.202:
	movq	%rdi, 376(%rsp)
	callq	__ZdlPv
LBB4_203:
	leaq	880(%rsp), %rdi
	callq	__ZN9ParticlesD2Ev
	movq	256(%rsp), %rdi         ## 8-byte Reload
	callq	__ZdlPv
	movq	776(%rsp), %rax         ## 8-byte Reload
	movq	%rax, 1248(%rsp)
	movq	%r13, 1672(%rsp)
	movq	%r12, %rdi
	callq	__ZNSt3__113basic_filebufIcNS_11char_traitsIcEEED2Ev
	movq	__ZTTNSt3__114basic_ifstreamIcNS_11char_traitsIcEEEE@GOTPCREL(%rip), %rsi
	addq	$8, %rsi
	leaq	1248(%rsp), %rdi
	callq	__ZNSt3__113basic_istreamIcNS_11char_traitsIcEEED2Ev
	movq	%r15, %rdi
	callq	__ZNSt3__19basic_iosIcNS_11char_traitsIcEEED2Ev
	movq	224(%rsp), %r14
	testq	%r14, %r14
	je	LBB4_211
## %bb.204:
	movq	232(%rsp), %rax
	cmpq	%r14, %rax
	je	LBB4_209
	.p2align	4, 0x90
LBB4_205:                               ## =>This Inner Loop Header: Depth=1
	leaq	-24(%rax), %rbx
	testb	$1, -24(%rax)
	je	LBB4_207
## %bb.206:                             ##   in Loop: Header=BB4_205 Depth=1
	movq	-8(%rax), %rdi
	callq	__ZdlPv
LBB4_207:                               ##   in Loop: Header=BB4_205 Depth=1
	movq	%rbx, %rax
	cmpq	%rbx, %r14
	jne	LBB4_205
## %bb.208:
	movq	224(%rsp), %rdi
	movq	248(%rsp), %rbx         ## 8-byte Reload
	jmp	LBB4_210
LBB4_209:
	movq	%r14, %rdi
LBB4_210:
	movq	%r14, 232(%rsp)
	callq	__ZdlPv
LBB4_211:
	testb	$1, 272(%rsp)
	jne	LBB4_216
## %bb.212:
	testb	$1, 336(%rsp)
	jne	LBB4_217
LBB4_213:
	testb	$1, 752(%rsp)
	jne	LBB4_218
LBB4_214:
	movq	___stack_chk_guard@GOTPCREL(%rip), %rax
	movq	(%rax), %rax
	cmpq	1824(%rsp), %rax
	jne	LBB4_219
LBB4_215:
	movq	%rbx, %rax
	leaq	-40(%rbp), %rsp
	popq	%rbx
	popq	%r12
	popq	%r13
	popq	%r14
	popq	%r15
	popq	%rbp
	retq
LBB4_216:
	movq	288(%rsp), %rdi
	callq	__ZdlPv
	testb	$1, 336(%rsp)
	je	LBB4_213
LBB4_217:
	movq	352(%rsp), %rdi
	callq	__ZdlPv
	testb	$1, 752(%rsp)
	je	LBB4_214
LBB4_218:
	movq	768(%rsp), %rdi
	callq	__ZdlPv
	movq	___stack_chk_guard@GOTPCREL(%rip), %rax
	movq	(%rax), %rax
	cmpq	1824(%rsp), %rax
	je	LBB4_215
LBB4_219:
	callq	___stack_chk_fail
LBB4_220:
	leaq	L_.str.51(%rip), %rdi
	xorl	%eax, %eax
	movl	172(%rsp), %esi         ## 4-byte Reload
	callq	_printf
Ltmp444:
	movl	$1, %edi
	callq	_exit
Ltmp445:
	jmp	LBB4_229
LBB4_221:
	leaq	L_str.148(%rip), %rdi
	callq	_puts
Ltmp499:
	movl	$1, %edi
	callq	_exit
Ltmp500:
	jmp	LBB4_229
LBB4_222:
	leaq	L_str.149(%rip), %rdi
	callq	_puts
Ltmp398:
	movl	$1, %edi
	callq	_exit
Ltmp399:
	jmp	LBB4_229
LBB4_223:
	testb	$1, (%r15)
	je	LBB4_225
## %bb.224:
	movq	16(%r15), %r14
LBB4_225:
	leaq	L_.str.50(%rip), %rdi
	xorl	%eax, %eax
	movq	%r14, %rsi
	callq	_printf
Ltmp373:
	movl	$1, %edi
	callq	_exit
Ltmp374:
	jmp	LBB4_229
LBB4_226:
	leaq	L_str.147(%rip), %rdi
	callq	_puts
	movl	392(%rsp), %esi
	movl	220(%rsp), %edx
	leaq	L_.str.56(%rip), %rdi
	xorl	%eax, %eax
	callq	_printf
Ltmp502:
	movl	$1, %edi
	callq	_exit
Ltmp503:
	jmp	LBB4_229
LBB4_227:
Ltmp508:
	leaq	L___func__._ZN5Eigen8internal17resize_if_allowedINS_6MatrixIdLin1ELin1ELi0ELin1ELin1EEES3_ddEEvRT_RKT0_RKNS0_9assign_opIT1_T2_EE(%rip), %rdi
	leaq	L_.str.62(%rip), %rsi
	leaq	L_.str.63(%rip), %rcx
	movl	$721, %edx              ## imm = 0x2D1
	callq	___assert_rtn
Ltmp509:
	jmp	LBB4_229
LBB4_228:
Ltmp514:
	leaq	L___func__._ZN5Eigen8internal17resize_if_allowedINS_6MatrixIdLin1ELin1ELi0ELin1ELin1EEES3_ddEEvRT_RKT0_RKNS0_9assign_opIT1_T2_EE(%rip), %rdi
	leaq	L_.str.62(%rip), %rsi
	leaq	L_.str.63(%rip), %rcx
	movl	$721, %edx              ## imm = 0x2D1
	callq	___assert_rtn
Ltmp515:
LBB4_229:
	ud2
LBB4_230:
Ltmp375:
	movq	%rax, %r14
	leaq	1672(%rsp), %rbx
	leaq	1264(%rsp), %r12
	movq	160(%rsp), %r13         ## 8-byte Reload
	jmp	LBB4_290
LBB4_231:
Ltmp400:
	jmp	LBB4_249
LBB4_232:
Ltmp501:
	jmp	LBB4_266
LBB4_233:
Ltmp446:
	jmp	LBB4_263
LBB4_234:
Ltmp521:
	movq	%rax, %r14
	movq	%rbx, %rdi
	callq	__ZN9ParticlesD2Ev
	jmp	LBB4_275
LBB4_235:
Ltmp518:
	jmp	LBB4_274
LBB4_236:
Ltmp372:
	movq	%rax, %r14
	jmp	LBB4_291
LBB4_237:
Ltmp364:
	movq	%rax, %r14
	jmp	LBB4_293
LBB4_238:
Ltmp361:
	movq	%rax, %r14
	jmp	LBB4_294
LBB4_239:
Ltmp369:
	movq	%rax, %r14
	jmp	LBB4_292
LBB4_240:
Ltmp463:
	jmp	LBB4_263
LBB4_241:
Ltmp470:
	jmp	LBB4_263
LBB4_242:
Ltmp451:
	movq	%rax, %r14
	movq	%rbx, %rdi
	callq	__ZdlPv
	jmp	LBB4_264
LBB4_243:
Ltmp409:
	movq	%rax, %r14
	testb	$1, 560(%rsp)
	je	LBB4_245
## %bb.244:
	movq	576(%rsp), %rdi
	callq	__ZdlPv
LBB4_245:
	leaq	496(%rsp), %rdi
	callq	__ZNSt3__115basic_streambufIcNS_11char_traitsIcEEED2Ev
	jmp	LBB4_259
LBB4_246:
Ltmp406:
	jmp	LBB4_258
LBB4_247:
Ltmp403:
	jmp	LBB4_261
LBB4_248:
Ltmp397:
LBB4_249:
	movq	%rax, %r14
	movq	184(%rsp), %rax         ## 8-byte Reload
	movq	%rax, 480(%rsp)
	movq	176(%rsp), %rax         ## 8-byte Reload
	movq	%rax, 600(%rsp)
	movq	200(%rsp), %rax         ## 8-byte Reload
	movq	%rax, 496(%rsp)
	testb	$1, 560(%rsp)
	leaq	1264(%rsp), %r12
	movq	160(%rsp), %r13         ## 8-byte Reload
	leaq	496(%rsp), %rbx
	jne	LBB4_267
	jmp	LBB4_268
LBB4_250:
Ltmp394:
	jmp	LBB4_254
LBB4_251:
Ltmp391:
	jmp	LBB4_258
LBB4_252:
Ltmp388:
	jmp	LBB4_261
LBB4_253:
Ltmp479:
LBB4_254:
	movq	%rax, %r14
	testb	$1, 560(%rsp)
	leaq	1264(%rsp), %r12
	movq	160(%rsp), %r13         ## 8-byte Reload
	je	LBB4_256
## %bb.255:
	movq	576(%rsp), %rdi
	callq	__ZdlPv
LBB4_256:
	leaq	496(%rsp), %rdi
	jmp	LBB4_269
LBB4_257:
Ltmp476:
LBB4_258:
	movq	%rax, %r14
LBB4_259:
	leaq	1264(%rsp), %r12
	movq	160(%rsp), %r13         ## 8-byte Reload
	jmp	LBB4_270
LBB4_260:
Ltmp473:
LBB4_261:
	movq	%rax, %r14
	leaq	1264(%rsp), %r12
	movq	160(%rsp), %r13         ## 8-byte Reload
	jmp	LBB4_271
LBB4_262:
Ltmp456:
LBB4_263:
	movq	%rax, %r14
LBB4_264:
	leaq	1264(%rsp), %r12
	movq	160(%rsp), %r13         ## 8-byte Reload
	leaq	496(%rsp), %rbx
	movq	184(%rsp), %rax         ## 8-byte Reload
	movq	176(%rsp), %rcx         ## 8-byte Reload
	movq	%rax, 480(%rsp)
	movq	%rcx, 600(%rsp)
	movq	200(%rsp), %rax         ## 8-byte Reload
	movq	%rax, 496(%rsp)
	testb	$1, 560(%rsp)
	jne	LBB4_267
	jmp	LBB4_268
LBB4_265:
Ltmp498:
LBB4_266:
	movq	%rax, %r14
	leaq	496(%rsp), %rbx
	movq	176(%rsp), %rax         ## 8-byte Reload
	movq	%rax, 480(%rsp)
	movq	184(%rsp), %rax         ## 8-byte Reload
	movq	%rax, 600(%rsp)
	movq	200(%rsp), %rax         ## 8-byte Reload
	movq	%rax, 496(%rsp)
	testb	$1, 560(%rsp)
	leaq	1264(%rsp), %r12
	movq	160(%rsp), %r13         ## 8-byte Reload
	je	LBB4_268
LBB4_267:
	movq	576(%rsp), %rdi
	callq	__ZdlPv
LBB4_268:
	movq	%rbx, %rdi
LBB4_269:
	callq	__ZNSt3__115basic_streambufIcNS_11char_traitsIcEEED2Ev
LBB4_270:
	leaq	480(%rsp), %rdi
	movq	192(%rsp), %rsi         ## 8-byte Reload
	callq	__ZNSt3__113basic_istreamIcNS_11char_traitsIcEEED2Ev
LBB4_271:
	leaq	600(%rsp), %rdi
	callq	__ZNSt3__19basic_iosIcNS_11char_traitsIcEEED2Ev
	movq	448(%rsp), %rax
	testq	%rax, %rax
	jne	LBB4_276
	jmp	LBB4_277
LBB4_272:
Ltmp382:
	movq	%rax, %r14
	leaq	480(%rsp), %rdi
	callq	__ZNSt3__16localeD1Ev
	jmp	LBB4_275
LBB4_273:
Ltmp385:
LBB4_274:
	movq	%rax, %r14
LBB4_275:
	leaq	1264(%rsp), %r12
	movq	160(%rsp), %r13         ## 8-byte Reload
	movq	448(%rsp), %rax
	testq	%rax, %rax
	je	LBB4_277
LBB4_276:
	movq	-8(%rax), %rdi
	callq	_free
LBB4_277:
	movq	424(%rsp), %r15
	testq	%r15, %r15
	je	LBB4_285
## %bb.278:
	movq	432(%rsp), %rax
	cmpq	%r15, %rax
	je	LBB4_283
	.p2align	4, 0x90
LBB4_279:                               ## =>This Inner Loop Header: Depth=1
	leaq	-24(%rax), %rbx
	movq	-24(%rax), %rdi
	testq	%rdi, %rdi
	je	LBB4_281
## %bb.280:                             ##   in Loop: Header=BB4_279 Depth=1
	movq	%rdi, -16(%rax)
	callq	__ZdlPv
LBB4_281:                               ##   in Loop: Header=BB4_279 Depth=1
	movq	%rbx, %rax
	cmpq	%rbx, %r15
	jne	LBB4_279
## %bb.282:
	movq	424(%rsp), %rdi
	jmp	LBB4_284
LBB4_283:
	movq	%r15, %rdi
LBB4_284:
	movq	%r15, 432(%rsp)
	callq	__ZdlPv
LBB4_285:
	movq	400(%rsp), %rax
	testq	%rax, %rax
	je	LBB4_287
## %bb.286:
	movq	-8(%rax), %rdi
	callq	_free
LBB4_287:
	movq	368(%rsp), %rdi
	testq	%rdi, %rdi
	leaq	1672(%rsp), %rbx
	je	LBB4_289
## %bb.288:
	movq	%rdi, 376(%rsp)
	callq	__ZdlPv
LBB4_289:
	leaq	880(%rsp), %rdi
	callq	__ZN9ParticlesD2Ev
LBB4_290:
	movq	256(%rsp), %rdi         ## 8-byte Reload
	callq	__ZdlPv
LBB4_291:
	movq	776(%rsp), %rax         ## 8-byte Reload
	movq	%rax, 1248(%rsp)
	movq	%r13, 1672(%rsp)
LBB4_292:
	movq	%r12, %rdi
	callq	__ZNSt3__113basic_filebufIcNS_11char_traitsIcEEED2Ev
LBB4_293:
	movq	__ZTTNSt3__114basic_ifstreamIcNS_11char_traitsIcEEEE@GOTPCREL(%rip), %rsi
	addq	$8, %rsi
	leaq	1248(%rsp), %rdi
	callq	__ZNSt3__113basic_istreamIcNS_11char_traitsIcEEED2Ev
LBB4_294:
	movq	%rbx, %rdi
	callq	__ZNSt3__19basic_iosIcNS_11char_traitsIcEEED2Ev
	movq	224(%rsp), %r15
	testq	%r15, %r15
	je	LBB4_301
## %bb.295:
	movq	232(%rsp), %rax
	cmpq	%r15, %rax
	je	LBB4_308
	.p2align	4, 0x90
LBB4_296:                               ## =>This Inner Loop Header: Depth=1
	leaq	-24(%rax), %rbx
	testb	$1, -24(%rax)
	je	LBB4_298
## %bb.297:                             ##   in Loop: Header=BB4_296 Depth=1
	movq	-8(%rax), %rdi
	callq	__ZdlPv
LBB4_298:                               ##   in Loop: Header=BB4_296 Depth=1
	movq	%rbx, %rax
	cmpq	%rbx, %r15
	jne	LBB4_296
## %bb.299:
	movq	224(%rsp), %rdi
LBB4_300:
	movq	%r15, 232(%rsp)
	callq	__ZdlPv
LBB4_301:
	testb	$1, 272(%rsp)
	jne	LBB4_305
## %bb.302:
	testb	$1, 336(%rsp)
	jne	LBB4_306
LBB4_303:
	testb	$1, 752(%rsp)
	jne	LBB4_307
LBB4_304:
	movq	%r14, %rdi
	callq	__Unwind_Resume
	ud2
LBB4_305:
	movq	288(%rsp), %rdi
	callq	__ZdlPv
	testb	$1, 336(%rsp)
	je	LBB4_303
LBB4_306:
	movq	352(%rsp), %rdi
	callq	__ZdlPv
	testb	$1, 752(%rsp)
	je	LBB4_304
LBB4_307:
	movq	768(%rsp), %rdi
	callq	__ZdlPv
	movq	%r14, %rdi
	callq	__Unwind_Resume
	ud2
LBB4_308:
	movq	%r15, %rdi
	jmp	LBB4_300
Lfunc_end3:
	.cfi_endproc
	.section	__TEXT,__gcc_except_tab
	.p2align	2
GCC_except_table4:
Lexception3:
	.byte	255                     ## @LPStart Encoding = omit
	.byte	155                     ## @TType Encoding = indirect pcrel sdata4
	.asciz	"\243\203"              ## @TType base offset
	.byte	3                       ## Call site Encoding = udata4
	.ascii	"\240\003"              ## Call site table length
Lset302 = Ltmp359-Lfunc_begin3          ## >> Call Site 1 <<
	.long	Lset302
Lset303 = Ltmp360-Ltmp359               ##   Call between Ltmp359 and Ltmp360
	.long	Lset303
Lset304 = Ltmp361-Lfunc_begin3          ##     jumps to Ltmp361
	.long	Lset304
	.byte	0                       ##   On action: cleanup
Lset305 = Ltmp362-Lfunc_begin3          ## >> Call Site 2 <<
	.long	Lset305
Lset306 = Ltmp363-Ltmp362               ##   Call between Ltmp362 and Ltmp363
	.long	Lset306
Lset307 = Ltmp364-Lfunc_begin3          ##     jumps to Ltmp364
	.long	Lset307
	.byte	0                       ##   On action: cleanup
Lset308 = Ltmp367-Lfunc_begin3          ## >> Call Site 3 <<
	.long	Lset308
Lset309 = Ltmp366-Ltmp367               ##   Call between Ltmp367 and Ltmp366
	.long	Lset309
Lset310 = Ltmp369-Lfunc_begin3          ##     jumps to Ltmp369
	.long	Lset310
	.byte	0                       ##   On action: cleanup
Lset311 = Ltmp370-Lfunc_begin3          ## >> Call Site 4 <<
	.long	Lset311
Lset312 = Ltmp371-Ltmp370               ##   Call between Ltmp370 and Ltmp371
	.long	Lset312
Lset313 = Ltmp372-Lfunc_begin3          ##     jumps to Ltmp372
	.long	Lset313
	.byte	0                       ##   On action: cleanup
Lset314 = Ltmp376-Lfunc_begin3          ## >> Call Site 5 <<
	.long	Lset314
Lset315 = Ltmp377-Ltmp376               ##   Call between Ltmp376 and Ltmp377
	.long	Lset315
Lset316 = Ltmp385-Lfunc_begin3          ##     jumps to Ltmp385
	.long	Lset316
	.byte	0                       ##   On action: cleanup
Lset317 = Ltmp378-Lfunc_begin3          ## >> Call Site 6 <<
	.long	Lset317
Lset318 = Ltmp381-Ltmp378               ##   Call between Ltmp378 and Ltmp381
	.long	Lset318
Lset319 = Ltmp382-Lfunc_begin3          ##     jumps to Ltmp382
	.long	Lset319
	.byte	0                       ##   On action: cleanup
Lset320 = Ltmp383-Lfunc_begin3          ## >> Call Site 7 <<
	.long	Lset320
Lset321 = Ltmp384-Ltmp383               ##   Call between Ltmp383 and Ltmp384
	.long	Lset321
Lset322 = Ltmp385-Lfunc_begin3          ##     jumps to Ltmp385
	.long	Lset322
	.byte	0                       ##   On action: cleanup
Lset323 = Ltmp386-Lfunc_begin3          ## >> Call Site 8 <<
	.long	Lset323
Lset324 = Ltmp387-Ltmp386               ##   Call between Ltmp386 and Ltmp387
	.long	Lset324
Lset325 = Ltmp388-Lfunc_begin3          ##     jumps to Ltmp388
	.long	Lset325
	.byte	0                       ##   On action: cleanup
Lset326 = Ltmp389-Lfunc_begin3          ## >> Call Site 9 <<
	.long	Lset326
Lset327 = Ltmp390-Ltmp389               ##   Call between Ltmp389 and Ltmp390
	.long	Lset327
Lset328 = Ltmp391-Lfunc_begin3          ##     jumps to Ltmp391
	.long	Lset328
	.byte	0                       ##   On action: cleanup
Lset329 = Ltmp392-Lfunc_begin3          ## >> Call Site 10 <<
	.long	Lset329
Lset330 = Ltmp393-Ltmp392               ##   Call between Ltmp392 and Ltmp393
	.long	Lset330
Lset331 = Ltmp394-Lfunc_begin3          ##     jumps to Ltmp394
	.long	Lset331
	.byte	0                       ##   On action: cleanup
Lset332 = Ltmp395-Lfunc_begin3          ## >> Call Site 11 <<
	.long	Lset332
Lset333 = Ltmp396-Ltmp395               ##   Call between Ltmp395 and Ltmp396
	.long	Lset333
Lset334 = Ltmp397-Lfunc_begin3          ##     jumps to Ltmp397
	.long	Lset334
	.byte	0                       ##   On action: cleanup
Lset335 = Ltmp401-Lfunc_begin3          ## >> Call Site 12 <<
	.long	Lset335
Lset336 = Ltmp402-Ltmp401               ##   Call between Ltmp401 and Ltmp402
	.long	Lset336
Lset337 = Ltmp403-Lfunc_begin3          ##     jumps to Ltmp403
	.long	Lset337
	.byte	0                       ##   On action: cleanup
Lset338 = Ltmp404-Lfunc_begin3          ## >> Call Site 13 <<
	.long	Lset338
Lset339 = Ltmp405-Ltmp404               ##   Call between Ltmp404 and Ltmp405
	.long	Lset339
Lset340 = Ltmp406-Lfunc_begin3          ##     jumps to Ltmp406
	.long	Lset340
	.byte	0                       ##   On action: cleanup
Lset341 = Ltmp407-Lfunc_begin3          ## >> Call Site 14 <<
	.long	Lset341
Lset342 = Ltmp408-Ltmp407               ##   Call between Ltmp407 and Ltmp408
	.long	Lset342
Lset343 = Ltmp409-Lfunc_begin3          ##     jumps to Ltmp409
	.long	Lset343
	.byte	0                       ##   On action: cleanup
Lset344 = Ltmp410-Lfunc_begin3          ## >> Call Site 15 <<
	.long	Lset344
Lset345 = Ltmp448-Ltmp410               ##   Call between Ltmp410 and Ltmp448
	.long	Lset345
Lset346 = Ltmp456-Lfunc_begin3          ##     jumps to Ltmp456
	.long	Lset346
	.byte	0                       ##   On action: cleanup
Lset347 = Ltmp449-Lfunc_begin3          ## >> Call Site 16 <<
	.long	Lset347
Lset348 = Ltmp450-Ltmp449               ##   Call between Ltmp449 and Ltmp450
	.long	Lset348
Lset349 = Ltmp451-Lfunc_begin3          ##     jumps to Ltmp451
	.long	Lset349
	.byte	0                       ##   On action: cleanup
Lset350 = Ltmp452-Lfunc_begin3          ## >> Call Site 17 <<
	.long	Lset350
Lset351 = Ltmp455-Ltmp452               ##   Call between Ltmp452 and Ltmp455
	.long	Lset351
Lset352 = Ltmp456-Lfunc_begin3          ##     jumps to Ltmp456
	.long	Lset352
	.byte	0                       ##   On action: cleanup
Lset353 = Ltmp459-Lfunc_begin3          ## >> Call Site 18 <<
	.long	Lset353
Lset354 = Ltmp462-Ltmp459               ##   Call between Ltmp459 and Ltmp462
	.long	Lset354
Lset355 = Ltmp463-Lfunc_begin3          ##     jumps to Ltmp463
	.long	Lset355
	.byte	0                       ##   On action: cleanup
Lset356 = Ltmp464-Lfunc_begin3          ## >> Call Site 19 <<
	.long	Lset356
Lset357 = Ltmp469-Ltmp464               ##   Call between Ltmp464 and Ltmp469
	.long	Lset357
Lset358 = Ltmp470-Lfunc_begin3          ##     jumps to Ltmp470
	.long	Lset358
	.byte	0                       ##   On action: cleanup
Lset359 = Ltmp471-Lfunc_begin3          ## >> Call Site 20 <<
	.long	Lset359
Lset360 = Ltmp472-Ltmp471               ##   Call between Ltmp471 and Ltmp472
	.long	Lset360
Lset361 = Ltmp473-Lfunc_begin3          ##     jumps to Ltmp473
	.long	Lset361
	.byte	0                       ##   On action: cleanup
Lset362 = Ltmp474-Lfunc_begin3          ## >> Call Site 21 <<
	.long	Lset362
Lset363 = Ltmp475-Ltmp474               ##   Call between Ltmp474 and Ltmp475
	.long	Lset363
Lset364 = Ltmp476-Lfunc_begin3          ##     jumps to Ltmp476
	.long	Lset364
	.byte	0                       ##   On action: cleanup
Lset365 = Ltmp477-Lfunc_begin3          ## >> Call Site 22 <<
	.long	Lset365
Lset366 = Ltmp478-Ltmp477               ##   Call between Ltmp477 and Ltmp478
	.long	Lset366
Lset367 = Ltmp479-Lfunc_begin3          ##     jumps to Ltmp479
	.long	Lset367
	.byte	0                       ##   On action: cleanup
Lset368 = Ltmp480-Lfunc_begin3          ## >> Call Site 23 <<
	.long	Lset368
Lset369 = Ltmp497-Ltmp480               ##   Call between Ltmp480 and Ltmp497
	.long	Lset369
Lset370 = Ltmp498-Lfunc_begin3          ##     jumps to Ltmp498
	.long	Lset370
	.byte	0                       ##   On action: cleanup
Lset371 = Ltmp504-Lfunc_begin3          ## >> Call Site 24 <<
	.long	Lset371
Lset372 = Ltmp517-Ltmp504               ##   Call between Ltmp504 and Ltmp517
	.long	Lset372
Lset373 = Ltmp518-Lfunc_begin3          ##     jumps to Ltmp518
	.long	Lset373
	.byte	0                       ##   On action: cleanup
Lset374 = Ltmp519-Lfunc_begin3          ## >> Call Site 25 <<
	.long	Lset374
Lset375 = Ltmp520-Ltmp519               ##   Call between Ltmp519 and Ltmp520
	.long	Lset375
Lset376 = Ltmp521-Lfunc_begin3          ##     jumps to Ltmp521
	.long	Lset376
	.byte	0                       ##   On action: cleanup
Lset377 = Ltmp520-Lfunc_begin3          ## >> Call Site 26 <<
	.long	Lset377
Lset378 = Ltmp444-Ltmp520               ##   Call between Ltmp520 and Ltmp444
	.long	Lset378
	.long	0                       ##     has no landing pad
	.byte	0                       ##   On action: cleanup
Lset379 = Ltmp444-Lfunc_begin3          ## >> Call Site 27 <<
	.long	Lset379
Lset380 = Ltmp445-Ltmp444               ##   Call between Ltmp444 and Ltmp445
	.long	Lset380
Lset381 = Ltmp446-Lfunc_begin3          ##     jumps to Ltmp446
	.long	Lset381
	.byte	0                       ##   On action: cleanup
Lset382 = Ltmp499-Lfunc_begin3          ## >> Call Site 28 <<
	.long	Lset382
Lset383 = Ltmp500-Ltmp499               ##   Call between Ltmp499 and Ltmp500
	.long	Lset383
Lset384 = Ltmp501-Lfunc_begin3          ##     jumps to Ltmp501
	.long	Lset384
	.byte	0                       ##   On action: cleanup
Lset385 = Ltmp398-Lfunc_begin3          ## >> Call Site 29 <<
	.long	Lset385
Lset386 = Ltmp399-Ltmp398               ##   Call between Ltmp398 and Ltmp399
	.long	Lset386
Lset387 = Ltmp400-Lfunc_begin3          ##     jumps to Ltmp400
	.long	Lset387
	.byte	0                       ##   On action: cleanup
Lset388 = Ltmp373-Lfunc_begin3          ## >> Call Site 30 <<
	.long	Lset388
Lset389 = Ltmp374-Ltmp373               ##   Call between Ltmp373 and Ltmp374
	.long	Lset389
Lset390 = Ltmp375-Lfunc_begin3          ##     jumps to Ltmp375
	.long	Lset390
	.byte	0                       ##   On action: cleanup
Lset391 = Ltmp502-Lfunc_begin3          ## >> Call Site 31 <<
	.long	Lset391
Lset392 = Ltmp515-Ltmp502               ##   Call between Ltmp502 and Ltmp515
	.long	Lset392
Lset393 = Ltmp518-Lfunc_begin3          ##     jumps to Ltmp518
	.long	Lset393
	.byte	0                       ##   On action: cleanup
Lset394 = Ltmp515-Lfunc_begin3          ## >> Call Site 32 <<
	.long	Lset394
Lset395 = Lfunc_end3-Ltmp515            ##   Call between Ltmp515 and Lfunc_end3
	.long	Lset395
	.long	0                       ##     has no landing pad
	.byte	0                       ##   On action: cleanup
	.p2align	2
                                        ## -- End function
	.section	__TEXT,__literal16,16byte_literals
	.p2align	4               ## -- Begin function _ZN2IO8read_parENSt3__112basic_stringIcNS0_11char_traitsIcEENS0_9allocatorIcEEEER9Particles
LCPI5_0:
	.space	16
	.section	__TEXT,__const
	.p2align	5
LCPI5_1:
	.space	32
	.section	__TEXT,__text,regular,pure_instructions
	.globl	__ZN2IO8read_parENSt3__112basic_stringIcNS0_11char_traitsIcEENS0_9allocatorIcEEEER9Particles
	.weak_def_can_be_hidden	__ZN2IO8read_parENSt3__112basic_stringIcNS0_11char_traitsIcEENS0_9allocatorIcEEEER9Particles
	.p2align	4, 0x90
__ZN2IO8read_parENSt3__112basic_stringIcNS0_11char_traitsIcEENS0_9allocatorIcEEEER9Particles: ## @_ZN2IO8read_parENSt3__112basic_stringIcNS0_11char_traitsIcEENS0_9allocatorIcEEEER9Particles
Lfunc_begin4:
	.cfi_startproc
	.cfi_personality 155, ___gxx_personality_v0
	.cfi_lsda 16, Lexception4
## %bb.0:
	pushq	%rbp
	.cfi_def_cfa_offset 16
	.cfi_offset %rbp, -16
	movq	%rsp, %rbp
	.cfi_def_cfa_register %rbp
	pushq	%r15
	pushq	%r14
	pushq	%r13
	pushq	%r12
	pushq	%rbx
	andq	$-32, %rsp
	subq	$1440, %rsp             ## imm = 0x5A0
	.cfi_offset %rbx, -56
	.cfi_offset %r12, -48
	.cfi_offset %r13, -40
	.cfi_offset %r14, -32
	.cfi_offset %r15, -24
	movq	%rcx, 80(%rsp)          ## 8-byte Spill
	movq	%rdx, %rbx
	movq	%rdi, %r14
	movq	___stack_chk_guard@GOTPCREL(%rip), %rax
	movq	(%rax), %rax
	movq	%rax, 1408(%rsp)
	vxorps	%xmm0, %xmm0, %xmm0
	vmovaps	%xmm0, 160(%rsp)
	movq	$0, 176(%rsp)
	vmovaps	%xmm0, 128(%rsp)
	vmovaps	%xmm0, 496(%rsp)
	movq	$0, 144(%rsp)
	movq	$0, 512(%rsp)
	leaq	1256(%rsp), %r15
	leaq	848(%rsp), %r12
	movq	__ZTCNSt3__114basic_ifstreamIcNS_11char_traitsIcEEEE0_NS_13basic_istreamIcS2_EE@GOTPCREL(%rip), %rax
	leaq	64(%rax), %rcx
	movq	%rcx, 1256(%rsp)
	addq	$24, %rax
	vmovq	%rax, %xmm0
	vmovdqa	%xmm0, 832(%rsp)
Ltmp522:
	movq	%r15, %rdi
	movq	%r12, %rsi
	callq	__ZNSt3__18ios_base4initEPv
Ltmp523:
## %bb.1:
	movq	$0, 1392(%rsp)
	movl	$-1, 1400(%rsp)
	movq	__ZTVNSt3__114basic_ifstreamIcNS_11char_traitsIcEEEE@GOTPCREL(%rip), %r13
	leaq	24(%r13), %rax
	movq	%rax, 552(%rsp)         ## 8-byte Spill
	movq	%rax, 832(%rsp)
	addq	$64, %r13
	movq	%r13, 1256(%rsp)
Ltmp525:
	movq	%r12, %rdi
	callq	__ZNSt3__113basic_filebufIcNS_11char_traitsIcEEEC2Ev
Ltmp526:
## %bb.2:
	cmpq	$0, 968(%rsp)
	je	LBB5_7
LBB5_3:
	movq	832(%rsp), %rax
	movq	-24(%rax), %rax
	leaq	(%rsp,%rax), %rdi
	addq	$832, %rdi              ## imm = 0x340
	movl	864(%rsp,%rax), %esi
	orl	$4, %esi
Ltmp530:
	callq	__ZNSt3__18ios_base5clearEj
Ltmp531:
## %bb.4:
	movq	832(%rsp), %rax
	movq	-24(%rax), %rax
	testb	$5, 864(%rsp,%rax)
	je	LBB5_6
LBB5_5:
	leaq	L_str.154(%rip), %rdi
	callq	_puts
LBB5_6:
	leaq	8(%r14), %rax
	vpxor	%xmm0, %xmm0, %xmm0
	vmovdqu	%xmm0, 8(%r14)
	movq	%rax, (%r14)
	leaq	L_str.150(%rip), %rdi
	callq	_puts
	movq	__ZTVNSt3__115basic_stringbufIcNS_11char_traitsIcEENS_9allocatorIcEEEE@GOTPCREL(%rip), %rax
	addq	$16, %rax
	movq	%rax, 8(%rsp)           ## 8-byte Spill
	movq	__ZTTNSt3__119basic_istringstreamIcNS_11char_traitsIcEENS_9allocatorIcEEEE@GOTPCREL(%rip), %rax
	addq	$8, %rax
	movq	%rax, (%rsp)            ## 8-byte Spill
	leaq	560(%rsp), %rbx
	jmp	LBB5_11
LBB5_7:
	leaq	1(%rbx), %rdi
	testb	$1, (%rbx)
	cmovneq	16(%rbx), %rdi
Ltmp528:
	leaq	L_.str.27(%rip), %rsi
	callq	_fopen
Ltmp529:
## %bb.8:
	movq	%rax, 968(%rsp)
	testq	%rax, %rax
	je	LBB5_3
## %bb.9:
	movl	$8, 1240(%rsp)
	movq	832(%rsp), %rax
	movq	-24(%rax), %rax
	testb	$5, 864(%rsp,%rax)
	jne	LBB5_5
	jmp	LBB5_6
LBB5_10:                                ##   in Loop: Header=BB5_11 Depth=1
	leaq	576(%rsp), %rdi
	callq	__ZNSt3__115basic_streambufIcNS_11char_traitsIcEEED2Ev
	movq	%rbx, %rdi
	movq	(%rsp), %rsi            ## 8-byte Reload
	callq	__ZNSt3__113basic_istreamIcNS_11char_traitsIcEEED2Ev
	leaq	680(%rsp), %rdi
	callq	__ZNSt3__19basic_iosIcNS_11char_traitsIcEEED2Ev
	.p2align	4, 0x90
LBB5_11:                                ## =>This Loop Header: Depth=1
                                        ##     Child Loop BB5_59 Depth 2
                                        ##     Child Loop BB5_248 Depth 2
                                        ##     Child Loop BB5_274 Depth 2
                                        ##     Child Loop BB5_208 Depth 2
                                        ##     Child Loop BB5_168 Depth 2
                                        ##     Child Loop BB5_85 Depth 2
                                        ##     Child Loop BB5_143 Depth 2
                                        ##     Child Loop BB5_112 Depth 2
	movq	832(%rsp), %rax
	movq	-24(%rax), %rsi
	leaq	832(%rsp), %rax
	addq	%rax, %rsi
Ltmp533:
	movq	%rbx, %rdi
	callq	__ZNKSt3__18ios_base6getlocEv
Ltmp534:
## %bb.12:                              ##   in Loop: Header=BB5_11 Depth=1
Ltmp535:
	movq	%rbx, %rdi
	movq	__ZNSt3__15ctypeIcE2idE@GOTPCREL(%rip), %rsi
	callq	__ZNKSt3__16locale9use_facetERNS0_2idE
Ltmp536:
## %bb.13:                              ##   in Loop: Header=BB5_11 Depth=1
	movq	(%rax), %rcx
Ltmp537:
	movl	$10, %esi
	movq	%rax, %rdi
	callq	*56(%rcx)
	movl	%eax, %ebx
Ltmp538:
## %bb.14:                              ##   in Loop: Header=BB5_11 Depth=1
	leaq	560(%rsp), %r15
	movq	%r15, %rdi
	callq	__ZNSt3__16localeD1Ev
Ltmp540:
	movsbl	%bl, %edx
	movq	%r15, %rbx
	leaq	192(%rsp), %r15
	leaq	832(%rsp), %rdi
	leaq	160(%rsp), %rsi
	callq	__ZNSt3__17getlineIcNS_11char_traitsIcEENS_9allocatorIcEEEERNS_13basic_istreamIT_T0_EES9_RNS_12basic_stringIS6_S7_T1_EES6_
Ltmp541:
## %bb.15:                              ##   in Loop: Header=BB5_11 Depth=1
	movq	(%rax), %rcx
	movq	-24(%rcx), %rcx
	testb	$5, 32(%rax,%rcx)
	jne	LBB5_329
## %bb.16:                              ##   in Loop: Header=BB5_11 Depth=1
	movb	160(%rsp), %al
	leaq	161(%rsp), %rcx
	testb	$1, %al
	je	LBB5_18
## %bb.17:                              ##   in Loop: Header=BB5_11 Depth=1
	movq	176(%rsp), %rcx
LBB5_18:                                ##   in Loop: Header=BB5_11 Depth=1
	cmpb	$35, (%rcx)
	je	LBB5_11
## %bb.19:                              ##   in Loop: Header=BB5_11 Depth=1
	testb	$1, %al
	je	LBB5_21
## %bb.20:                              ##   in Loop: Header=BB5_11 Depth=1
	movq	168(%rsp), %rax
	testq	%rax, %rax
	je	LBB5_11
	jmp	LBB5_22
	.p2align	4, 0x90
LBB5_21:                                ##   in Loop: Header=BB5_11 Depth=1
	shrb	%al
	movzbl	%al, %eax
	testq	%rax, %rax
	je	LBB5_11
LBB5_22:                                ##   in Loop: Header=BB5_11 Depth=1
	movq	__ZTCNSt3__119basic_istringstreamIcNS_11char_traitsIcEENS_9allocatorIcEEEE0_NS_13basic_istreamIcS2_EE@GOTPCREL(%rip), %rax
	leaq	64(%rax), %rcx
	movq	%rcx, 472(%rsp)         ## 8-byte Spill
	movq	%rcx, 680(%rsp)
	leaq	24(%rax), %rax
	vmovq	%rax, %xmm0
	vmovdqa	%xmm0, 528(%rsp)        ## 16-byte Spill
	vmovdqa	%xmm0, 560(%rsp)
Ltmp543:
	leaq	680(%rsp), %rdi
	leaq	576(%rsp), %rbx
	movq	%rbx, %rsi
	callq	__ZNSt3__18ios_base4initEPv
Ltmp544:
## %bb.23:                              ##   in Loop: Header=BB5_11 Depth=1
	movq	$0, 816(%rsp)
	movl	$-1, 824(%rsp)
	movq	__ZTVNSt3__119basic_istringstreamIcNS_11char_traitsIcEENS_9allocatorIcEEEE@GOTPCREL(%rip), %rax
	movq	%rax, %rcx
	leaq	24(%rcx), %rax
	movq	%rax, 24(%rsp)          ## 8-byte Spill
	movq	%rax, 560(%rsp)
	leaq	64(%rcx), %rax
	movq	%rax, 16(%rsp)          ## 8-byte Spill
	movq	%rax, 680(%rsp)
Ltmp546:
	movq	%rbx, %rdi
	callq	__ZNSt3__115basic_streambufIcNS_11char_traitsIcEEEC2Ev
Ltmp547:
## %bb.24:                              ##   in Loop: Header=BB5_11 Depth=1
	movq	8(%rsp), %rax           ## 8-byte Reload
	movq	%rax, 576(%rsp)
	leaq	680(%rsp), %rax
	vpxor	%xmm0, %xmm0, %xmm0
	vmovdqu	%ymm0, -40(%rax)
	movl	$8, 672(%rsp)
Ltmp549:
	movq	%rbx, %rdi
	leaq	160(%rsp), %rsi
	vzeroupper
	callq	__ZNSt3__115basic_stringbufIcNS_11char_traitsIcEENS_9allocatorIcEEE3strERKNS_12basic_stringIcS2_S4_EE
Ltmp550:
## %bb.25:                              ##   in Loop: Header=BB5_11 Depth=1
Ltmp552:
	leaq	560(%rsp), %rdi
	leaq	128(%rsp), %rbx
	movq	%rbx, %rsi
	callq	__ZNSt3__1rsIcNS_11char_traitsIcEENS_9allocatorIcEEEERNS_13basic_istreamIT_T0_EES9_RNS_12basic_stringIS6_S7_T1_EE
Ltmp553:
## %bb.26:                              ##   in Loop: Header=BB5_11 Depth=1
	movq	(%rax), %rcx
	movq	-24(%rcx), %rcx
	testb	$5, 32(%rax,%rcx)
	jne	LBB5_349
## %bb.27:                              ##   in Loop: Header=BB5_11 Depth=1
	movb	128(%rsp), %al
	movl	%eax, %edx
	shrb	%dl
	andb	$1, %al
	movq	136(%rsp), %rcx
	movzbl	%dl, %edx
	movq	%rcx, %rsi
	cmoveq	%rdx, %rsi
	cmpq	$6, %rsi
	jne	LBB5_31
## %bb.28:                              ##   in Loop: Header=BB5_11 Depth=1
Ltmp557:
	xorl	%esi, %esi
	movq	$-1, %rdx
	movl	$6, %r8d
	movq	%rbx, %rdi
	leaq	L_.str.69(%rip), %rcx
	callq	__ZNKSt3__112basic_stringIcNS_11char_traitsIcEENS_9allocatorIcEEE7compareEmmPKcm
Ltmp558:
## %bb.29:                              ##   in Loop: Header=BB5_11 Depth=1
	testl	%eax, %eax
	je	LBB5_110
## %bb.30:                              ##   in Loop: Header=BB5_11 Depth=1
	movb	128(%rsp), %dl
	movq	136(%rsp), %rcx
	movl	%edx, %eax
	andb	$1, %al
	shrb	%dl
	movzbl	%dl, %edx
LBB5_31:                                ##   in Loop: Header=BB5_11 Depth=1
	testb	%al, %al
	movq	%rcx, %rsi
	cmoveq	%rdx, %rsi
	cmpq	$5, %rsi
	jne	LBB5_35
## %bb.32:                              ##   in Loop: Header=BB5_11 Depth=1
Ltmp560:
	xorl	%esi, %esi
	movq	$-1, %rdx
	movl	$5, %r8d
	movq	%rbx, %rdi
	leaq	L_.str.72(%rip), %rcx
	callq	__ZNKSt3__112basic_stringIcNS_11char_traitsIcEENS_9allocatorIcEEE7compareEmmPKcm
Ltmp561:
## %bb.33:                              ##   in Loop: Header=BB5_11 Depth=1
	testl	%eax, %eax
	je	LBB5_141
## %bb.34:                              ##   in Loop: Header=BB5_11 Depth=1
	movb	128(%rsp), %dl
	movq	136(%rsp), %rcx
	movl	%edx, %eax
	andb	$1, %al
	shrb	%dl
	movzbl	%dl, %edx
LBB5_35:                                ##   in Loop: Header=BB5_11 Depth=1
	testb	%al, %al
	movq	%rcx, %rsi
	cmoveq	%rdx, %rsi
	cmpq	$4, %rsi
	movq	%r13, 104(%rsp)         ## 8-byte Spill
	jne	LBB5_39
## %bb.36:                              ##   in Loop: Header=BB5_11 Depth=1
Ltmp563:
	xorl	%esi, %esi
	movq	$-1, %rdx
	movl	$4, %r8d
	movq	%rbx, %rdi
	leaq	L_.str.75(%rip), %rcx
	callq	__ZNKSt3__112basic_stringIcNS_11char_traitsIcEENS_9allocatorIcEEE7compareEmmPKcm
Ltmp564:
## %bb.37:                              ##   in Loop: Header=BB5_11 Depth=1
	testl	%eax, %eax
	je	LBB5_85
## %bb.38:                              ##   in Loop: Header=BB5_11 Depth=1
	movb	128(%rsp), %dl
	movq	136(%rsp), %rcx
	movl	%edx, %eax
	andb	$1, %al
	shrb	%dl
	movzbl	%dl, %edx
	leaq	128(%rsp), %rbx
LBB5_39:                                ##   in Loop: Header=BB5_11 Depth=1
	testb	%al, %al
	movq	%rcx, %rsi
	cmoveq	%rdx, %rsi
	cmpq	$8, %rsi
	jne	LBB5_43
## %bb.40:                              ##   in Loop: Header=BB5_11 Depth=1
Ltmp566:
	xorl	%esi, %esi
	movq	$-1, %rdx
	movl	$8, %r8d
	movq	%rbx, %rdi
	leaq	L_.str.77(%rip), %rcx
	callq	__ZNKSt3__112basic_stringIcNS_11char_traitsIcEENS_9allocatorIcEEE7compareEmmPKcm
Ltmp567:
## %bb.41:                              ##   in Loop: Header=BB5_11 Depth=1
	testl	%eax, %eax
	je	LBB5_168
## %bb.42:                              ##   in Loop: Header=BB5_11 Depth=1
	movb	128(%rsp), %dl
	movq	136(%rsp), %rcx
	movl	%edx, %eax
	andb	$1, %al
	shrb	%dl
	movzbl	%dl, %edx
LBB5_43:                                ##   in Loop: Header=BB5_11 Depth=1
	testb	%al, %al
	movq	%rcx, %rsi
	cmoveq	%rdx, %rsi
	cmpq	$16, %rsi
	jne	LBB5_47
## %bb.44:                              ##   in Loop: Header=BB5_11 Depth=1
Ltmp569:
	xorl	%esi, %esi
	movq	$-1, %rdx
	movl	$16, %r8d
	movq	%rbx, %rdi
	leaq	L_.str.79(%rip), %rcx
	callq	__ZNKSt3__112basic_stringIcNS_11char_traitsIcEENS_9allocatorIcEEE7compareEmmPKcm
Ltmp570:
## %bb.45:                              ##   in Loop: Header=BB5_11 Depth=1
	testl	%eax, %eax
	je	LBB5_208
## %bb.46:                              ##   in Loop: Header=BB5_11 Depth=1
	movb	128(%rsp), %dl
	movq	136(%rsp), %rcx
	movl	%edx, %eax
	andb	$1, %al
	shrb	%dl
	movzbl	%dl, %edx
LBB5_47:                                ##   in Loop: Header=BB5_11 Depth=1
	testb	%al, %al
	movq	%rcx, %rsi
	cmoveq	%rdx, %rsi
	cmpq	$2, %rsi
	jne	LBB5_51
## %bb.48:                              ##   in Loop: Header=BB5_11 Depth=1
Ltmp572:
	xorl	%esi, %esi
	movq	$-1, %rdx
	movl	$2, %r8d
	movq	%rbx, %rdi
	leaq	L_.str.81(%rip), %rcx
	callq	__ZNKSt3__112basic_stringIcNS_11char_traitsIcEENS_9allocatorIcEEE7compareEmmPKcm
Ltmp573:
## %bb.49:                              ##   in Loop: Header=BB5_11 Depth=1
	testl	%eax, %eax
	je	LBB5_274
## %bb.50:                              ##   in Loop: Header=BB5_11 Depth=1
	movb	128(%rsp), %dl
	movq	136(%rsp), %rcx
	movl	%edx, %eax
	andb	$1, %al
	shrb	%dl
	movzbl	%dl, %edx
LBB5_51:                                ##   in Loop: Header=BB5_11 Depth=1
	testb	%al, %al
	movq	%rcx, %rsi
	cmoveq	%rdx, %rsi
	cmpq	$6, %rsi
	jne	LBB5_55
## %bb.52:                              ##   in Loop: Header=BB5_11 Depth=1
Ltmp575:
	xorl	%esi, %esi
	movq	$-1, %rdx
	movl	$6, %r8d
	movq	%rbx, %rdi
	leaq	L_.str.83(%rip), %rcx
	callq	__ZNKSt3__112basic_stringIcNS_11char_traitsIcEENS_9allocatorIcEEE7compareEmmPKcm
Ltmp576:
## %bb.53:                              ##   in Loop: Header=BB5_11 Depth=1
	testl	%eax, %eax
	je	LBB5_248
## %bb.54:                              ##   in Loop: Header=BB5_11 Depth=1
	movb	128(%rsp), %dl
	movq	136(%rsp), %rcx
	movl	%edx, %eax
	andb	$1, %al
	shrb	%dl
	movzbl	%dl, %edx
	leaq	128(%rsp), %rbx
LBB5_55:                                ##   in Loop: Header=BB5_11 Depth=1
	testb	%al, %al
	cmovneq	%rcx, %rdx
	cmpq	$6, %rdx
	jne	LBB5_353
## %bb.56:                              ##   in Loop: Header=BB5_11 Depth=1
Ltmp578:
	xorl	%esi, %esi
	movq	$-1, %rdx
	movl	$6, %r8d
	movq	%rbx, %rdi
	leaq	L_.str.85(%rip), %rcx
	callq	__ZNKSt3__112basic_stringIcNS_11char_traitsIcEENS_9allocatorIcEEE7compareEmmPKcm
Ltmp579:
## %bb.57:                              ##   in Loop: Header=BB5_11 Depth=1
	testl	%eax, %eax
	movq	%r14, 464(%rsp)         ## 8-byte Spill
	je	LBB5_59
	jmp	LBB5_352
	.p2align	4, 0x90
LBB5_58:                                ##   in Loop: Header=BB5_59 Depth=2
	movq	%rbx, %rdi
	callq	__ZNSt3__115basic_streambufIcNS_11char_traitsIcEEED2Ev
	leaq	192(%rsp), %r15
	movq	%r15, %rdi
	movq	(%rsp), %rsi            ## 8-byte Reload
	callq	__ZNSt3__113basic_istreamIcNS_11char_traitsIcEEED2Ev
	leaq	312(%rsp), %rdi
	callq	__ZNSt3__19basic_iosIcNS_11char_traitsIcEEED2Ev
	movq	464(%rsp), %r14         ## 8-byte Reload
LBB5_59:                                ##   Parent Loop BB5_11 Depth=1
                                        ## =>  This Inner Loop Header: Depth=2
	movq	832(%rsp), %rax
	movq	-24(%rax), %rsi
	leaq	832(%rsp), %rax
	addq	%rax, %rsi
Ltmp584:
	movq	%r15, %rdi
	callq	__ZNKSt3__18ios_base6getlocEv
Ltmp585:
## %bb.60:                              ##   in Loop: Header=BB5_59 Depth=2
Ltmp586:
	movq	%r15, %rdi
	movq	__ZNSt3__15ctypeIcE2idE@GOTPCREL(%rip), %rsi
	callq	__ZNKSt3__16locale9use_facetERNS0_2idE
Ltmp587:
## %bb.61:                              ##   in Loop: Header=BB5_59 Depth=2
	movq	(%rax), %rcx
Ltmp588:
	movl	$10, %esi
	movq	%rax, %rdi
	callq	*56(%rcx)
	movl	%eax, %ebx
Ltmp589:
## %bb.62:                              ##   in Loop: Header=BB5_59 Depth=2
	movq	%r15, %rdi
	callq	__ZNSt3__16localeD1Ev
Ltmp591:
	movsbl	%bl, %edx
	leaq	832(%rsp), %rdi
	leaq	160(%rsp), %rsi
	callq	__ZNSt3__17getlineIcNS_11char_traitsIcEENS_9allocatorIcEEEERNS_13basic_istreamIT_T0_EES9_RNS_12basic_stringIS6_S7_T1_EES6_
Ltmp592:
	leaq	208(%rsp), %rbx
## %bb.63:                              ##   in Loop: Header=BB5_59 Depth=2
	movq	472(%rsp), %rax         ## 8-byte Reload
	movq	%rax, 312(%rsp)
	vmovdqa	528(%rsp), %xmm0        ## 16-byte Reload
	vmovdqa	%xmm0, 192(%rsp)
Ltmp594:
	leaq	312(%rsp), %rdi
	movq	%rbx, %rsi
	callq	__ZNSt3__18ios_base4initEPv
Ltmp595:
## %bb.64:                              ##   in Loop: Header=BB5_59 Depth=2
	movq	$0, 448(%rsp)
	movl	$-1, 456(%rsp)
	movq	24(%rsp), %rax          ## 8-byte Reload
	movq	%rax, 192(%rsp)
	movq	16(%rsp), %rax          ## 8-byte Reload
	movq	%rax, 312(%rsp)
Ltmp597:
	movq	%rbx, %rdi
	callq	__ZNSt3__115basic_streambufIcNS_11char_traitsIcEEEC2Ev
Ltmp598:
## %bb.65:                              ##   in Loop: Header=BB5_59 Depth=2
	movq	8(%rsp), %rax           ## 8-byte Reload
	movq	%rax, 208(%rsp)
	leaq	312(%rsp), %rax
	vpxor	%xmm0, %xmm0, %xmm0
	vmovdqu	%ymm0, -40(%rax)
	movl	$8, 304(%rsp)
Ltmp600:
	movq	%rbx, %rdi
	leaq	160(%rsp), %rsi
	vzeroupper
	callq	__ZNSt3__115basic_stringbufIcNS_11char_traitsIcEENS_9allocatorIcEEE3strERKNS_12basic_stringIcS2_S4_EE
Ltmp601:
## %bb.66:                              ##   in Loop: Header=BB5_59 Depth=2
Ltmp603:
	movq	%r15, %rdi
	leaq	496(%rsp), %rsi
	callq	__ZNSt3__1rsIcNS_11char_traitsIcEENS_9allocatorIcEEEERNS_13basic_istreamIT_T0_EES9_RNS_12basic_stringIS6_S7_T1_EE
Ltmp604:
## %bb.67:                              ##   in Loop: Header=BB5_59 Depth=2
Ltmp605:
	movq	%rax, %rdi
	leaq	112(%rsp), %rsi
	callq	__ZNSt3__113basic_istreamIcNS_11char_traitsIcEEErsERd
Ltmp606:
## %bb.68:                              ##   in Loop: Header=BB5_59 Depth=2
	movq	(%rax), %rcx
	movq	-24(%rcx), %rcx
	testb	$5, 32(%rax,%rcx)
	jne	LBB5_319
## %bb.69:                              ##   in Loop: Header=BB5_59 Depth=2
	leaq	496(%rsp), %rsi
	movq	%rsi, 32(%rsp)
Ltmp607:
	movq	464(%rsp), %rdi         ## 8-byte Reload
	leaq	__ZNSt3__1L19piecewise_constructE(%rip), %rdx
	leaq	32(%rsp), %rcx
	leaq	88(%rsp), %r8
	callq	__ZNSt3__16__treeINS_12__value_typeINS_12basic_stringIcNS_11char_traitsIcEENS_9allocatorIcEEEENS_3mapIS7_NS_6vectorIdNS5_IdEEEENS_4lessIS7_EENS5_INS_4pairIKS7_SB_EEEEEEEENS_19__map_value_compareIS7_SJ_SD_Lb1EEENS5_ISJ_EEE25__emplace_unique_key_argsIS7_JRKNS_21piecewise_construct_tENS_5tupleIJRSF_EEENSS_IJEEEEEENSE_INS_15__tree_iteratorISJ_PNS_11__tree_nodeISJ_PvEElEEbEERKT_DpOT0_
	movq	%rax, %r12
Ltmp608:
## %bb.70:                              ##   in Loop: Header=BB5_59 Depth=2
	movq	%r13, %r14
	leaq	56(%r12), %r13
	vpxor	%xmm0, %xmm0, %xmm0
	leaq	56(%rsp), %rax
	vmovdqu	%xmm0, -16(%rax)
	movb	$12, 32(%rsp)
	movw	$29557, -19(%rax)       ## imm = 0x7375
	movl	$1768186226, -23(%rax)  ## imm = 0x69646172
	movb	$0, 39(%rsp)
Ltmp610:
	movq	%r13, %rdi
	leaq	88(%rsp), %rsi
	leaq	32(%rsp), %rdx
	callq	__ZNSt3__16__treeINS_12__value_typeINS_12basic_stringIcNS_11char_traitsIcEENS_9allocatorIcEEEENS_6vectorIdNS5_IdEEEEEENS_19__map_value_compareIS7_SB_NS_4lessIS7_EELb1EEENS5_ISB_EEE12__find_equalIS7_EERPNS_16__tree_node_baseIPvEERPNS_15__tree_end_nodeISM_EERKT_
	movq	%rax, %r15
Ltmp611:
## %bb.71:                              ##   in Loop: Header=BB5_59 Depth=2
	movq	(%r15), %rbx
	testq	%rbx, %rbx
	je	LBB5_74
## %bb.72:                              ##   in Loop: Header=BB5_59 Depth=2
	movq	64(%rbx), %rax
	cmpq	72(%rbx), %rax
	je	LBB5_79
LBB5_73:                                ##   in Loop: Header=BB5_59 Depth=2
	movq	112(%rsp), %rcx
	movq	%rcx, (%rax)
	addq	$8, %rax
	movq	%rax, 64(%rbx)
	testb	$1, 32(%rsp)
	jne	LBB5_81
	jmp	LBB5_82
LBB5_74:                                ##   in Loop: Header=BB5_59 Depth=2
Ltmp612:
	movl	$80, %edi
	callq	__Znwm
	movq	%rax, %rbx
Ltmp613:
## %bb.75:                              ##   in Loop: Header=BB5_59 Depth=2
	movq	48(%rsp), %rax
	movq	%rax, 48(%rbx)
	vmovdqa	32(%rsp), %xmm0
	vmovdqu	%xmm0, 32(%rbx)
	vpxor	%xmm0, %xmm0, %xmm0
	vmovdqa	%xmm0, 32(%rsp)
	movq	$0, 48(%rsp)
	vmovdqu	%xmm0, 56(%rbx)
	movq	$0, 72(%rbx)
	movq	88(%rsp), %rax
	vmovdqu	%xmm0, (%rbx)
	movq	%rax, 16(%rbx)
	movq	%rbx, (%r15)
	movq	(%r13), %rax
	movq	(%rax), %rax
	testq	%rax, %rax
	je	LBB5_77
## %bb.76:                              ##   in Loop: Header=BB5_59 Depth=2
	movq	%rax, (%r13)
	movq	(%r15), %rsi
	jmp	LBB5_78
LBB5_77:                                ##   in Loop: Header=BB5_59 Depth=2
	movq	%rbx, %rsi
LBB5_78:                                ##   in Loop: Header=BB5_59 Depth=2
	movq	64(%r12), %rdi
	callq	__ZNSt3__127__tree_balance_after_insertIPNS_16__tree_node_baseIPvEEEEvT_S5_
	addq	$1, 72(%r12)
	movq	64(%rbx), %rax
	cmpq	72(%rbx), %rax
	jne	LBB5_73
LBB5_79:                                ##   in Loop: Header=BB5_59 Depth=2
	addq	$56, %rbx
Ltmp614:
	movq	%rbx, %rdi
	leaq	112(%rsp), %rsi
	callq	__ZNSt3__16vectorIdNS_9allocatorIdEEE21__push_back_slow_pathIRKdEEvOT_
Ltmp615:
## %bb.80:                              ##   in Loop: Header=BB5_59 Depth=2
	testb	$1, 32(%rsp)
	je	LBB5_82
LBB5_81:                                ##   in Loop: Header=BB5_59 Depth=2
	movq	48(%rsp), %rdi
	callq	__ZdlPv
LBB5_82:                                ##   in Loop: Header=BB5_59 Depth=2
	movq	24(%rsp), %rax          ## 8-byte Reload
	movq	%rax, 192(%rsp)
	movq	16(%rsp), %rax          ## 8-byte Reload
	movq	%rax, 312(%rsp)
	movq	8(%rsp), %rax           ## 8-byte Reload
	movq	%rax, 208(%rsp)
	testb	$1, 272(%rsp)
	leaq	848(%rsp), %r12
	movq	%r14, %r13
	leaq	208(%rsp), %rbx
	je	LBB5_58
## %bb.83:                              ##   in Loop: Header=BB5_59 Depth=2
	movq	288(%rsp), %rdi
	callq	__ZdlPv
	jmp	LBB5_58
LBB5_84:                                ##   in Loop: Header=BB5_85 Depth=2
	movq	%rbx, %rdi
	callq	__ZNSt3__115basic_streambufIcNS_11char_traitsIcEEED2Ev
	movq	%r15, %rdi
	movq	(%rsp), %rsi            ## 8-byte Reload
	callq	__ZNSt3__113basic_istreamIcNS_11char_traitsIcEEED2Ev
	leaq	312(%rsp), %rdi
	callq	__ZNSt3__19basic_iosIcNS_11char_traitsIcEEED2Ev
	movq	464(%rsp), %r14         ## 8-byte Reload
LBB5_85:                                ##   Parent Loop BB5_11 Depth=1
                                        ## =>  This Inner Loop Header: Depth=2
	movq	832(%rsp), %rax
	movq	-24(%rax), %rsi
	leaq	832(%rsp), %rax
	addq	%rax, %rsi
Ltmp782:
	movq	%r15, %rdi
	callq	__ZNKSt3__18ios_base6getlocEv
Ltmp783:
## %bb.86:                              ##   in Loop: Header=BB5_85 Depth=2
Ltmp784:
	movq	%r15, %rdi
	movq	__ZNSt3__15ctypeIcE2idE@GOTPCREL(%rip), %rsi
	callq	__ZNKSt3__16locale9use_facetERNS0_2idE
Ltmp785:
## %bb.87:                              ##   in Loop: Header=BB5_85 Depth=2
	movq	(%rax), %rcx
Ltmp786:
	movl	$10, %esi
	movq	%rax, %rdi
	callq	*56(%rcx)
	movl	%eax, %ebx
Ltmp787:
## %bb.88:                              ##   in Loop: Header=BB5_85 Depth=2
	movq	%r15, %rdi
	callq	__ZNSt3__16localeD1Ev
Ltmp789:
	movsbl	%bl, %edx
	leaq	832(%rsp), %rdi
	leaq	160(%rsp), %rsi
	callq	__ZNSt3__17getlineIcNS_11char_traitsIcEENS_9allocatorIcEEEERNS_13basic_istreamIT_T0_EES9_RNS_12basic_stringIS6_S7_T1_EES6_
Ltmp790:
	leaq	208(%rsp), %rbx
## %bb.89:                              ##   in Loop: Header=BB5_85 Depth=2
	movq	472(%rsp), %rax         ## 8-byte Reload
	movq	%rax, 312(%rsp)
	vmovdqa	528(%rsp), %xmm0        ## 16-byte Reload
	vmovdqa	%xmm0, 192(%rsp)
Ltmp792:
	leaq	312(%rsp), %rdi
	movq	%rbx, %rsi
	callq	__ZNSt3__18ios_base4initEPv
Ltmp793:
## %bb.90:                              ##   in Loop: Header=BB5_85 Depth=2
	movq	$0, 448(%rsp)
	movl	$-1, 456(%rsp)
	movq	24(%rsp), %rax          ## 8-byte Reload
	movq	%rax, 192(%rsp)
	movq	16(%rsp), %rax          ## 8-byte Reload
	movq	%rax, 312(%rsp)
Ltmp795:
	movq	%rbx, %rdi
	callq	__ZNSt3__115basic_streambufIcNS_11char_traitsIcEEEC2Ev
Ltmp796:
## %bb.91:                              ##   in Loop: Header=BB5_85 Depth=2
	movq	8(%rsp), %rax           ## 8-byte Reload
	movq	%rax, 208(%rsp)
	leaq	312(%rsp), %rax
	vpxor	%xmm0, %xmm0, %xmm0
	vmovdqu	%ymm0, -40(%rax)
	movl	$8, 304(%rsp)
Ltmp798:
	movq	%rbx, %rdi
	leaq	160(%rsp), %rsi
	vzeroupper
	callq	__ZNSt3__115basic_stringbufIcNS_11char_traitsIcEENS_9allocatorIcEEE3strERKNS_12basic_stringIcS2_S4_EE
Ltmp799:
## %bb.92:                              ##   in Loop: Header=BB5_85 Depth=2
Ltmp801:
	movq	%r15, %rdi
	leaq	496(%rsp), %rsi
	callq	__ZNSt3__1rsIcNS_11char_traitsIcEENS_9allocatorIcEEEERNS_13basic_istreamIT_T0_EES9_RNS_12basic_stringIS6_S7_T1_EE
Ltmp802:
## %bb.93:                              ##   in Loop: Header=BB5_85 Depth=2
Ltmp803:
	movq	%rax, %rdi
	leaq	112(%rsp), %rsi
	callq	__ZNSt3__113basic_istreamIcNS_11char_traitsIcEEErsERd
Ltmp804:
## %bb.94:                              ##   in Loop: Header=BB5_85 Depth=2
	movq	(%rax), %rcx
	movq	-24(%rcx), %rcx
	testb	$5, 32(%rax,%rcx)
	jne	LBB5_323
## %bb.95:                              ##   in Loop: Header=BB5_85 Depth=2
	leaq	496(%rsp), %rsi
	movq	%rsi, 32(%rsp)
Ltmp805:
	movq	%r14, %rdi
	leaq	__ZNSt3__1L19piecewise_constructE(%rip), %rdx
	leaq	32(%rsp), %rcx
	leaq	88(%rsp), %r8
	callq	__ZNSt3__16__treeINS_12__value_typeINS_12basic_stringIcNS_11char_traitsIcEENS_9allocatorIcEEEENS_3mapIS7_NS_6vectorIdNS5_IdEEEENS_4lessIS7_EENS5_INS_4pairIKS7_SB_EEEEEEEENS_19__map_value_compareIS7_SJ_SD_Lb1EEENS5_ISJ_EEE25__emplace_unique_key_argsIS7_JRKNS_21piecewise_construct_tENS_5tupleIJRSF_EEENSS_IJEEEEEENSE_INS_15__tree_iteratorISJ_PNS_11__tree_nodeISJ_PvEElEEbEERKT_DpOT0_
	movq	%rax, %r13
Ltmp806:
## %bb.96:                              ##   in Loop: Header=BB5_85 Depth=2
	movq	%r14, 464(%rsp)         ## 8-byte Spill
	leaq	1256(%rsp), %r14
	leaq	56(%r13), %r15
	vpxor	%xmm0, %xmm0, %xmm0
	vmovdqa	%xmm0, 32(%rsp)
	movb	$8, 32(%rsp)
	movq	$0, 48(%rsp)
	movl	$1936941421, 33(%rsp)   ## imm = 0x7373616D
	movb	$0, 37(%rsp)
Ltmp808:
	movq	%r15, %rdi
	leaq	88(%rsp), %rsi
	leaq	32(%rsp), %rdx
	callq	__ZNSt3__16__treeINS_12__value_typeINS_12basic_stringIcNS_11char_traitsIcEENS_9allocatorIcEEEENS_6vectorIdNS5_IdEEEEEENS_19__map_value_compareIS7_SB_NS_4lessIS7_EELb1EEENS5_ISB_EEE12__find_equalIS7_EERPNS_16__tree_node_baseIPvEERPNS_15__tree_end_nodeISM_EERKT_
	movq	%rax, %rbx
Ltmp809:
## %bb.97:                              ##   in Loop: Header=BB5_85 Depth=2
	movq	(%rbx), %r12
	testq	%r12, %r12
	je	LBB5_100
## %bb.98:                              ##   in Loop: Header=BB5_85 Depth=2
	movq	64(%r12), %rax
	cmpq	72(%r12), %rax
	je	LBB5_105
LBB5_99:                                ##   in Loop: Header=BB5_85 Depth=2
	movq	112(%rsp), %rcx
	movq	%rcx, (%rax)
	addq	$8, %rax
	movq	%rax, 64(%r12)
	testb	$1, 32(%rsp)
	leaq	208(%rsp), %rbx
	jne	LBB5_107
	jmp	LBB5_108
LBB5_100:                               ##   in Loop: Header=BB5_85 Depth=2
Ltmp810:
	movl	$80, %edi
	callq	__Znwm
	movq	%rax, %r12
Ltmp811:
## %bb.101:                             ##   in Loop: Header=BB5_85 Depth=2
	movq	48(%rsp), %rax
	movq	%rax, 48(%r12)
	vmovdqa	32(%rsp), %xmm0
	vmovdqu	%xmm0, 32(%r12)
	vpxor	%xmm0, %xmm0, %xmm0
	vmovdqa	%xmm0, 32(%rsp)
	movq	$0, 48(%rsp)
	vmovdqu	%xmm0, 56(%r12)
	movq	$0, 72(%r12)
	movq	88(%rsp), %rax
	vmovdqu	%xmm0, (%r12)
	movq	%rax, 16(%r12)
	movq	%r12, (%rbx)
	movq	(%r15), %rax
	movq	(%rax), %rax
	testq	%rax, %rax
	je	LBB5_103
## %bb.102:                             ##   in Loop: Header=BB5_85 Depth=2
	movq	%rax, (%r15)
	movq	(%rbx), %rsi
	jmp	LBB5_104
LBB5_103:                               ##   in Loop: Header=BB5_85 Depth=2
	movq	%r12, %rsi
LBB5_104:                               ##   in Loop: Header=BB5_85 Depth=2
	movq	64(%r13), %rdi
	callq	__ZNSt3__127__tree_balance_after_insertIPNS_16__tree_node_baseIPvEEEEvT_S5_
	addq	$1, 72(%r13)
	movq	64(%r12), %rax
	cmpq	72(%r12), %rax
	jne	LBB5_99
LBB5_105:                               ##   in Loop: Header=BB5_85 Depth=2
	addq	$56, %r12
Ltmp812:
	movq	%r12, %rdi
	leaq	112(%rsp), %rsi
	callq	__ZNSt3__16vectorIdNS_9allocatorIdEEE21__push_back_slow_pathIRKdEEvOT_
Ltmp813:
## %bb.106:                             ##   in Loop: Header=BB5_85 Depth=2
	testb	$1, 32(%rsp)
	leaq	208(%rsp), %rbx
	je	LBB5_108
LBB5_107:                               ##   in Loop: Header=BB5_85 Depth=2
	movq	48(%rsp), %rdi
	callq	__ZdlPv
LBB5_108:                               ##   in Loop: Header=BB5_85 Depth=2
	movq	24(%rsp), %rax          ## 8-byte Reload
	movq	%rax, 192(%rsp)
	movq	16(%rsp), %rax          ## 8-byte Reload
	movq	%rax, 312(%rsp)
	movq	8(%rsp), %rax           ## 8-byte Reload
	movq	%rax, 208(%rsp)
	testb	$1, 272(%rsp)
	leaq	848(%rsp), %r12
	movq	104(%rsp), %r13         ## 8-byte Reload
	leaq	192(%rsp), %r15
	je	LBB5_84
## %bb.109:                             ##   in Loop: Header=BB5_85 Depth=2
	movq	288(%rsp), %rdi
	callq	__ZdlPv
	jmp	LBB5_84
LBB5_110:                               ##   in Loop: Header=BB5_11 Depth=1
	leaq	L_str.153(%rip), %rdi
	callq	_puts
	jmp	LBB5_112
LBB5_111:                               ##   in Loop: Header=BB5_112 Depth=2
	leaq	208(%rsp), %rdi
	vzeroupper
	callq	__ZNSt3__115basic_streambufIcNS_11char_traitsIcEEED2Ev
	movq	%r15, %rdi
	movq	(%rsp), %rsi            ## 8-byte Reload
	callq	__ZNSt3__113basic_istreamIcNS_11char_traitsIcEEED2Ev
	leaq	312(%rsp), %rdi
	callq	__ZNSt3__19basic_iosIcNS_11char_traitsIcEEED2Ev
LBB5_112:                               ##   Parent Loop BB5_11 Depth=1
                                        ## =>  This Inner Loop Header: Depth=2
	movq	832(%rsp), %rax
	movq	-24(%rax), %rsi
	leaq	832(%rsp), %rax
	addq	%rax, %rsi
Ltmp849:
	movq	%r15, %rdi
	callq	__ZNKSt3__18ios_base6getlocEv
Ltmp850:
## %bb.113:                             ##   in Loop: Header=BB5_112 Depth=2
Ltmp851:
	movq	%r15, %rdi
	movq	__ZNSt3__15ctypeIcE2idE@GOTPCREL(%rip), %rsi
	callq	__ZNKSt3__16locale9use_facetERNS0_2idE
Ltmp852:
## %bb.114:                             ##   in Loop: Header=BB5_112 Depth=2
	movq	(%rax), %rcx
Ltmp853:
	movl	$10, %esi
	movq	%rax, %rdi
	callq	*56(%rcx)
	movl	%eax, %ebx
Ltmp854:
## %bb.115:                             ##   in Loop: Header=BB5_112 Depth=2
	movq	%r15, %rdi
	callq	__ZNSt3__16localeD1Ev
Ltmp856:
	movsbl	%bl, %edx
	leaq	832(%rsp), %rdi
	leaq	160(%rsp), %rsi
	callq	__ZNSt3__17getlineIcNS_11char_traitsIcEENS_9allocatorIcEEEERNS_13basic_istreamIT_T0_EES9_RNS_12basic_stringIS6_S7_T1_EES6_
Ltmp857:
## %bb.116:                             ##   in Loop: Header=BB5_112 Depth=2
	movq	472(%rsp), %rax         ## 8-byte Reload
	movq	%rax, 312(%rsp)
	vmovdqa	528(%rsp), %xmm0        ## 16-byte Reload
	vmovdqa	%xmm0, 192(%rsp)
Ltmp859:
	leaq	312(%rsp), %rdi
	leaq	208(%rsp), %rbx
	movq	%rbx, %rsi
	callq	__ZNSt3__18ios_base4initEPv
Ltmp860:
## %bb.117:                             ##   in Loop: Header=BB5_112 Depth=2
	movq	$0, 448(%rsp)
	movl	$-1, 456(%rsp)
	movq	24(%rsp), %rax          ## 8-byte Reload
	movq	%rax, 192(%rsp)
	movq	16(%rsp), %rax          ## 8-byte Reload
	movq	%rax, 312(%rsp)
Ltmp862:
	movq	%rbx, %rdi
	callq	__ZNSt3__115basic_streambufIcNS_11char_traitsIcEEEC2Ev
Ltmp863:
## %bb.118:                             ##   in Loop: Header=BB5_112 Depth=2
	movq	8(%rsp), %rax           ## 8-byte Reload
	movq	%rax, 208(%rsp)
	leaq	312(%rsp), %rax
	vpxor	%xmm0, %xmm0, %xmm0
	vmovdqu	%ymm0, -40(%rax)
	movl	$8, 304(%rsp)
Ltmp865:
	movq	%rbx, %rdi
	leaq	160(%rsp), %rsi
	vzeroupper
	callq	__ZNSt3__115basic_stringbufIcNS_11char_traitsIcEENS_9allocatorIcEEE3strERKNS_12basic_stringIcS2_S4_EE
Ltmp866:
## %bb.119:                             ##   in Loop: Header=BB5_112 Depth=2
Ltmp868:
	movq	%r15, %rdi
	leaq	100(%rsp), %rsi
	callq	__ZNSt3__113basic_istreamIcNS_11char_traitsIcEEErsERi
Ltmp869:
	leaq	560(%rsp), %rbx
## %bb.120:                             ##   in Loop: Header=BB5_112 Depth=2
Ltmp870:
	movq	%rax, %rdi
	leaq	124(%rsp), %rsi
	callq	__ZNSt3__113basic_istreamIcNS_11char_traitsIcEEErsERi
Ltmp871:
## %bb.121:                             ##   in Loop: Header=BB5_112 Depth=2
Ltmp872:
	movq	%rax, %rdi
	leaq	492(%rsp), %rsi
	callq	__ZNSt3__113basic_istreamIcNS_11char_traitsIcEEErsERi
Ltmp873:
## %bb.122:                             ##   in Loop: Header=BB5_112 Depth=2
	movq	(%rax), %rcx
	movq	-24(%rcx), %rcx
	testb	$5, 32(%rax,%rcx)
	jne	LBB5_313
## %bb.123:                             ##   in Loop: Header=BB5_112 Depth=2
	movslq	100(%rsp), %rdi
	leaq	-1(%rdi), %rsi
	movl	%esi, 100(%rsp)
	movslq	124(%rsp), %r8
	leaq	-1(%r8), %rdx
	movl	%edx, 124(%rsp)
	movslq	492(%rsp), %r9
	leal	-1(%r9), %ecx
	movl	%ecx, 492(%rsp)
	movq	80(%rsp), %r10          ## 8-byte Reload
	movq	32(%r10), %rbx
	movq	-8(%rbx,%rdi,8), %rdi
	movslq	136(%rdi), %rdi
	movq	-8(%rbx,%r8,8), %rax
	cmpl	136(%rax), %edi
	jne	LBB5_351
## %bb.124:                             ##   in Loop: Header=BB5_112 Depth=2
	movq	-8(%rbx,%r9,8), %rax
	cmpl	136(%rax), %edi
	jne	LBB5_351
## %bb.125:                             ##   in Loop: Header=BB5_112 Depth=2
	movq	8(%r10), %rax
	movq	(%rax,%rdi,8), %rdi
	vpxor	%xmm0, %xmm0, %xmm0
	vmovdqa	%ymm0, 32(%rsp)
	movq	$0, 64(%rsp)
	movq	64(%rdi), %rax
	cmpq	72(%rdi), %rax
	jae	LBB5_127
## %bb.126:                             ##   in Loop: Header=BB5_112 Depth=2
	vxorps	%xmm1, %xmm1, %xmm1
	vmovups	%xmm1, (%rax)
	movq	$0, 16(%rax)
	vmovaps	32(%rsp), %xmm0
	vmovups	%xmm0, (%rax)
	movq	48(%rsp), %rcx
	movq	%rcx, 16(%rax)
	vmovaps	%xmm1, 32(%rsp)
	movq	$0, 48(%rsp)
	leaq	56(%rsp), %rcx
	vmovdqu	(%rcx), %xmm0
	vmovdqu	%xmm0, 24(%rax)
	addq	$40, 64(%rdi)
	jmp	LBB5_130
LBB5_127:                               ##   in Loop: Header=BB5_112 Depth=2
	addq	$56, %rdi
Ltmp877:
	leaq	32(%rsp), %rsi
	vzeroupper
	callq	__ZNSt3__16vectorI5AngleNS_9allocatorIS1_EEE21__push_back_slow_pathIS1_EEvOT_
Ltmp878:
## %bb.128:                             ##   in Loop: Header=BB5_112 Depth=2
	movq	32(%rsp), %rdi
	testq	%rdi, %rdi
	movq	80(%rsp), %r10          ## 8-byte Reload
	je	LBB5_130
## %bb.129:                             ##   in Loop: Header=BB5_112 Depth=2
	movq	%rdi, 40(%rsp)
	callq	__ZdlPv
	movq	80(%rsp), %r10          ## 8-byte Reload
LBB5_130:                               ##   in Loop: Header=BB5_112 Depth=2
	movslq	100(%rsp), %rax
	movq	8(%r10), %rcx
	movq	32(%r10), %rdx
	movq	(%rdx,%rax,8), %rdx
	movslq	136(%rdx), %rdx
	movq	(%rcx,%rdx,8), %rcx
	movq	64(%rcx), %rdi
	movl	%eax, 32(%rsp)
	movq	-32(%rdi), %rcx
	cmpq	-24(%rdi), %rcx
	je	LBB5_132
## %bb.131:                             ##   in Loop: Header=BB5_112 Depth=2
	movl	%eax, (%rcx)
	addq	$4, %rcx
	movq	%rcx, -32(%rdi)
	jmp	LBB5_133
LBB5_132:                               ##   in Loop: Header=BB5_112 Depth=2
	addq	$-40, %rdi
Ltmp880:
	leaq	32(%rsp), %rsi
	vzeroupper
	callq	__ZNSt3__16vectorIiNS_9allocatorIiEEE21__push_back_slow_pathIRKiEEvOT_
Ltmp881:
LBB5_133:                               ##   in Loop: Header=BB5_112 Depth=2
	movslq	100(%rsp), %rax
	movq	80(%rsp), %rdx          ## 8-byte Reload
	movq	8(%rdx), %rcx
	movq	32(%rdx), %rdx
	movq	(%rdx,%rax,8), %rax
	movslq	136(%rax), %rax
	movq	(%rcx,%rax,8), %rax
	movq	64(%rax), %rdi
	movl	124(%rsp), %ecx
	movl	%ecx, 32(%rsp)
	movq	-32(%rdi), %rax
	cmpq	-24(%rdi), %rax
	je	LBB5_135
## %bb.134:                             ##   in Loop: Header=BB5_112 Depth=2
	movl	%ecx, (%rax)
	addq	$4, %rax
	movq	%rax, -32(%rdi)
	jmp	LBB5_136
LBB5_135:                               ##   in Loop: Header=BB5_112 Depth=2
	addq	$-40, %rdi
Ltmp882:
	leaq	32(%rsp), %rsi
	vzeroupper
	callq	__ZNSt3__16vectorIiNS_9allocatorIiEEE21__push_back_slow_pathIRKiEEvOT_
Ltmp883:
LBB5_136:                               ##   in Loop: Header=BB5_112 Depth=2
	movslq	100(%rsp), %rax
	movq	80(%rsp), %rdx          ## 8-byte Reload
	movq	8(%rdx), %rcx
	movq	32(%rdx), %rdx
	movq	(%rdx,%rax,8), %rax
	movslq	136(%rax), %rax
	movq	(%rcx,%rax,8), %rax
	movq	64(%rax), %rdi
	movl	492(%rsp), %ecx
	movl	%ecx, 32(%rsp)
	movq	-32(%rdi), %rax
	cmpq	-24(%rdi), %rax
	je	LBB5_138
## %bb.137:                             ##   in Loop: Header=BB5_112 Depth=2
	movl	%ecx, (%rax)
	addq	$4, %rax
	movq	%rax, -32(%rdi)
	jmp	LBB5_139
LBB5_138:                               ##   in Loop: Header=BB5_112 Depth=2
	addq	$-40, %rdi
Ltmp884:
	leaq	32(%rsp), %rsi
	vzeroupper
	callq	__ZNSt3__16vectorIiNS_9allocatorIiEEE21__push_back_slow_pathIRKiEEvOT_
Ltmp885:
LBB5_139:                               ##   in Loop: Header=BB5_112 Depth=2
	movq	24(%rsp), %rax          ## 8-byte Reload
	movq	%rax, 192(%rsp)
	movq	16(%rsp), %rax          ## 8-byte Reload
	movq	%rax, 312(%rsp)
	movq	8(%rsp), %rax           ## 8-byte Reload
	movq	%rax, 208(%rsp)
	testb	$1, 272(%rsp)
	je	LBB5_111
## %bb.140:                             ##   in Loop: Header=BB5_112 Depth=2
	movq	288(%rsp), %rdi
	vzeroupper
	callq	__ZdlPv
	jmp	LBB5_111
LBB5_141:                               ##   in Loop: Header=BB5_11 Depth=1
	leaq	L_str.152(%rip), %rdi
	callq	_puts
	jmp	LBB5_143
LBB5_142:                               ##   in Loop: Header=BB5_143 Depth=2
	leaq	208(%rsp), %rdi
	vzeroupper
	callq	__ZNSt3__115basic_streambufIcNS_11char_traitsIcEEED2Ev
	movq	%r15, %rdi
	movq	(%rsp), %rsi            ## 8-byte Reload
	callq	__ZNSt3__113basic_istreamIcNS_11char_traitsIcEEED2Ev
	leaq	312(%rsp), %rdi
	callq	__ZNSt3__19basic_iosIcNS_11char_traitsIcEEED2Ev
LBB5_143:                               ##   Parent Loop BB5_11 Depth=1
                                        ## =>  This Inner Loop Header: Depth=2
	movq	832(%rsp), %rax
	movq	-24(%rax), %rsi
	leaq	832(%rsp), %rax
	addq	%rax, %rsi
Ltmp815:
	movq	%r15, %rdi
	callq	__ZNKSt3__18ios_base6getlocEv
Ltmp816:
## %bb.144:                             ##   in Loop: Header=BB5_143 Depth=2
Ltmp817:
	movq	%r15, %rdi
	movq	__ZNSt3__15ctypeIcE2idE@GOTPCREL(%rip), %rsi
	callq	__ZNKSt3__16locale9use_facetERNS0_2idE
Ltmp818:
## %bb.145:                             ##   in Loop: Header=BB5_143 Depth=2
	movq	(%rax), %rcx
Ltmp819:
	movl	$10, %esi
	movq	%rax, %rdi
	callq	*56(%rcx)
	movl	%eax, %ebx
Ltmp820:
## %bb.146:                             ##   in Loop: Header=BB5_143 Depth=2
	movq	%r15, %rdi
	callq	__ZNSt3__16localeD1Ev
Ltmp822:
	movsbl	%bl, %edx
	leaq	832(%rsp), %rdi
	leaq	160(%rsp), %rsi
	callq	__ZNSt3__17getlineIcNS_11char_traitsIcEENS_9allocatorIcEEEERNS_13basic_istreamIT_T0_EES9_RNS_12basic_stringIS6_S7_T1_EES6_
Ltmp823:
## %bb.147:                             ##   in Loop: Header=BB5_143 Depth=2
	movq	472(%rsp), %rax         ## 8-byte Reload
	movq	%rax, 312(%rsp)
	vmovdqa	528(%rsp), %xmm0        ## 16-byte Reload
	vmovdqa	%xmm0, 192(%rsp)
Ltmp825:
	leaq	312(%rsp), %rdi
	leaq	208(%rsp), %rbx
	movq	%rbx, %rsi
	callq	__ZNSt3__18ios_base4initEPv
Ltmp826:
## %bb.148:                             ##   in Loop: Header=BB5_143 Depth=2
	movq	$0, 448(%rsp)
	movl	$-1, 456(%rsp)
	movq	24(%rsp), %rax          ## 8-byte Reload
	movq	%rax, 192(%rsp)
	movq	16(%rsp), %rax          ## 8-byte Reload
	movq	%rax, 312(%rsp)
Ltmp828:
	movq	%rbx, %rdi
	callq	__ZNSt3__115basic_streambufIcNS_11char_traitsIcEEEC2Ev
Ltmp829:
## %bb.149:                             ##   in Loop: Header=BB5_143 Depth=2
	movq	8(%rsp), %rax           ## 8-byte Reload
	movq	%rax, 208(%rsp)
	leaq	312(%rsp), %rax
	vpxor	%xmm0, %xmm0, %xmm0
	vmovdqu	%ymm0, -40(%rax)
	movl	$8, 304(%rsp)
Ltmp831:
	movq	%rbx, %rdi
	leaq	160(%rsp), %rsi
	vzeroupper
	callq	__ZNSt3__115basic_stringbufIcNS_11char_traitsIcEENS_9allocatorIcEEE3strERKNS_12basic_stringIcS2_S4_EE
Ltmp832:
## %bb.150:                             ##   in Loop: Header=BB5_143 Depth=2
Ltmp834:
	movq	%r15, %rdi
	leaq	100(%rsp), %rsi
	callq	__ZNSt3__113basic_istreamIcNS_11char_traitsIcEEErsERi
Ltmp835:
	leaq	560(%rsp), %rbx
## %bb.151:                             ##   in Loop: Header=BB5_143 Depth=2
Ltmp836:
	movq	%rax, %rdi
	leaq	124(%rsp), %rsi
	callq	__ZNSt3__113basic_istreamIcNS_11char_traitsIcEEErsERi
Ltmp837:
## %bb.152:                             ##   in Loop: Header=BB5_143 Depth=2
	movq	(%rax), %rcx
	movq	-24(%rcx), %rcx
	testb	$5, 32(%rax,%rcx)
	jne	LBB5_313
## %bb.153:                             ##   in Loop: Header=BB5_143 Depth=2
	movslq	100(%rsp), %rax
	leaq	-1(%rax), %rsi
	movl	%esi, 100(%rsp)
	movslq	124(%rsp), %rcx
	leaq	-1(%rcx), %rdx
	movl	%edx, 124(%rsp)
	movq	80(%rsp), %rbx          ## 8-byte Reload
	movq	32(%rbx), %rdi
	movq	-8(%rdi,%rax,8), %rax
	movslq	136(%rax), %rax
	movq	-8(%rdi,%rcx,8), %rcx
	cmpl	136(%rcx), %eax
	jne	LBB5_350
## %bb.154:                             ##   in Loop: Header=BB5_143 Depth=2
	movq	8(%rbx), %rcx
	movq	(%rcx,%rax,8), %rdi
	vpxor	%xmm0, %xmm0, %xmm0
	vmovdqa	%ymm0, 32(%rsp)
	movq	$0, 64(%rsp)
	movq	40(%rdi), %rax
	cmpq	48(%rdi), %rax
	jae	LBB5_156
## %bb.155:                             ##   in Loop: Header=BB5_143 Depth=2
	vxorps	%xmm1, %xmm1, %xmm1
	vmovups	%xmm1, (%rax)
	movq	$0, 16(%rax)
	vmovaps	32(%rsp), %xmm0
	vmovups	%xmm0, (%rax)
	movq	48(%rsp), %rcx
	movq	%rcx, 16(%rax)
	vmovaps	%xmm1, 32(%rsp)
	movq	$0, 48(%rsp)
	leaq	56(%rsp), %rcx
	vmovdqu	(%rcx), %xmm0
	vmovdqu	%xmm0, 24(%rax)
	addq	$40, 40(%rdi)
	jmp	LBB5_159
LBB5_156:                               ##   in Loop: Header=BB5_143 Depth=2
	addq	$32, %rdi
Ltmp841:
	leaq	32(%rsp), %rsi
	vzeroupper
	callq	__ZNSt3__16vectorI4BondNS_9allocatorIS1_EEE21__push_back_slow_pathIS1_EEvOT_
Ltmp842:
## %bb.157:                             ##   in Loop: Header=BB5_143 Depth=2
	movq	32(%rsp), %rdi
	testq	%rdi, %rdi
	movq	80(%rsp), %rbx          ## 8-byte Reload
	je	LBB5_159
## %bb.158:                             ##   in Loop: Header=BB5_143 Depth=2
	movq	%rdi, 40(%rsp)
	callq	__ZdlPv
	movq	80(%rsp), %rbx          ## 8-byte Reload
LBB5_159:                               ##   in Loop: Header=BB5_143 Depth=2
	movslq	100(%rsp), %rax
	movq	8(%rbx), %rcx
	movq	32(%rbx), %rdx
	movq	(%rdx,%rax,8), %rdx
	movslq	136(%rdx), %rdx
	movq	(%rcx,%rdx,8), %rcx
	movq	40(%rcx), %rdi
	movl	%eax, 32(%rsp)
	movq	-32(%rdi), %rcx
	cmpq	-24(%rdi), %rcx
	je	LBB5_161
## %bb.160:                             ##   in Loop: Header=BB5_143 Depth=2
	movl	%eax, (%rcx)
	addq	$4, %rcx
	movq	%rcx, -32(%rdi)
	jmp	LBB5_162
LBB5_161:                               ##   in Loop: Header=BB5_143 Depth=2
	addq	$-40, %rdi
Ltmp844:
	leaq	32(%rsp), %rsi
	vzeroupper
	callq	__ZNSt3__16vectorIiNS_9allocatorIiEEE21__push_back_slow_pathIRKiEEvOT_
Ltmp845:
LBB5_162:                               ##   in Loop: Header=BB5_143 Depth=2
	movslq	100(%rsp), %rax
	movq	80(%rsp), %rdx          ## 8-byte Reload
	movq	8(%rdx), %rcx
	movq	32(%rdx), %rdx
	movq	(%rdx,%rax,8), %rax
	movslq	136(%rax), %rax
	movq	(%rcx,%rax,8), %rax
	movq	40(%rax), %rdi
	movl	124(%rsp), %ecx
	movl	%ecx, 32(%rsp)
	movq	-32(%rdi), %rax
	cmpq	-24(%rdi), %rax
	je	LBB5_164
## %bb.163:                             ##   in Loop: Header=BB5_143 Depth=2
	movl	%ecx, (%rax)
	addq	$4, %rax
	movq	%rax, -32(%rdi)
	jmp	LBB5_165
LBB5_164:                               ##   in Loop: Header=BB5_143 Depth=2
	addq	$-40, %rdi
Ltmp846:
	leaq	32(%rsp), %rsi
	vzeroupper
	callq	__ZNSt3__16vectorIiNS_9allocatorIiEEE21__push_back_slow_pathIRKiEEvOT_
Ltmp847:
LBB5_165:                               ##   in Loop: Header=BB5_143 Depth=2
	movq	24(%rsp), %rax          ## 8-byte Reload
	movq	%rax, 192(%rsp)
	movq	16(%rsp), %rax          ## 8-byte Reload
	movq	%rax, 312(%rsp)
	movq	8(%rsp), %rax           ## 8-byte Reload
	movq	%rax, 208(%rsp)
	testb	$1, 272(%rsp)
	je	LBB5_142
## %bb.166:                             ##   in Loop: Header=BB5_143 Depth=2
	movq	288(%rsp), %rdi
	vzeroupper
	callq	__ZdlPv
	jmp	LBB5_142
LBB5_167:                               ##   in Loop: Header=BB5_168 Depth=2
	movq	%rbx, %rdi
	callq	__ZNSt3__115basic_streambufIcNS_11char_traitsIcEEED2Ev
	leaq	192(%rsp), %r15
	movq	%r15, %rdi
	movq	(%rsp), %rsi            ## 8-byte Reload
	callq	__ZNSt3__113basic_istreamIcNS_11char_traitsIcEEED2Ev
	leaq	312(%rsp), %rdi
	callq	__ZNSt3__19basic_iosIcNS_11char_traitsIcEEED2Ev
LBB5_168:                               ##   Parent Loop BB5_11 Depth=1
                                        ## =>  This Inner Loop Header: Depth=2
	movq	832(%rsp), %rax
	movq	-24(%rax), %rsi
	leaq	832(%rsp), %rax
	addq	%rax, %rsi
Ltmp738:
	movq	%r15, %rdi
	callq	__ZNKSt3__18ios_base6getlocEv
Ltmp739:
## %bb.169:                             ##   in Loop: Header=BB5_168 Depth=2
Ltmp740:
	movq	%r15, %rdi
	movq	__ZNSt3__15ctypeIcE2idE@GOTPCREL(%rip), %rsi
	callq	__ZNKSt3__16locale9use_facetERNS0_2idE
Ltmp741:
## %bb.170:                             ##   in Loop: Header=BB5_168 Depth=2
	movq	(%rax), %rcx
Ltmp742:
	movl	$10, %esi
	movq	%rax, %rdi
	callq	*56(%rcx)
	movl	%eax, %ebx
Ltmp743:
## %bb.171:                             ##   in Loop: Header=BB5_168 Depth=2
	movq	%r15, %rdi
	callq	__ZNSt3__16localeD1Ev
Ltmp745:
	movsbl	%bl, %edx
	leaq	832(%rsp), %rdi
	leaq	160(%rsp), %rsi
	callq	__ZNSt3__17getlineIcNS_11char_traitsIcEENS_9allocatorIcEEEERNS_13basic_istreamIT_T0_EES9_RNS_12basic_stringIS6_S7_T1_EES6_
Ltmp746:
	leaq	208(%rsp), %rbx
## %bb.172:                             ##   in Loop: Header=BB5_168 Depth=2
	movq	472(%rsp), %rax         ## 8-byte Reload
	movq	%rax, 312(%rsp)
	vmovdqa	528(%rsp), %xmm0        ## 16-byte Reload
	vmovdqa	%xmm0, 192(%rsp)
Ltmp748:
	leaq	312(%rsp), %rdi
	movq	%rbx, %rsi
	callq	__ZNSt3__18ios_base4initEPv
Ltmp749:
## %bb.173:                             ##   in Loop: Header=BB5_168 Depth=2
	movq	$0, 448(%rsp)
	movl	$-1, 456(%rsp)
	movq	24(%rsp), %rax          ## 8-byte Reload
	movq	%rax, 192(%rsp)
	movq	16(%rsp), %rax          ## 8-byte Reload
	movq	%rax, 312(%rsp)
Ltmp751:
	movq	%rbx, %rdi
	callq	__ZNSt3__115basic_streambufIcNS_11char_traitsIcEEEC2Ev
Ltmp752:
## %bb.174:                             ##   in Loop: Header=BB5_168 Depth=2
	movq	8(%rsp), %rax           ## 8-byte Reload
	movq	%rax, 208(%rsp)
	leaq	312(%rsp), %rax
	vpxor	%xmm0, %xmm0, %xmm0
	vmovdqu	%ymm0, -40(%rax)
	movl	$8, 304(%rsp)
Ltmp754:
	movq	%rbx, %rdi
	leaq	160(%rsp), %rsi
	vzeroupper
	callq	__ZNSt3__115basic_stringbufIcNS_11char_traitsIcEENS_9allocatorIcEEE3strERKNS_12basic_stringIcS2_S4_EE
Ltmp755:
## %bb.175:                             ##   in Loop: Header=BB5_168 Depth=2
Ltmp757:
	movq	%r15, %rdi
	leaq	496(%rsp), %rsi
	callq	__ZNSt3__1rsIcNS_11char_traitsIcEENS_9allocatorIcEEEERNS_13basic_istreamIT_T0_EES9_RNS_12basic_stringIS6_S7_T1_EE
Ltmp758:
## %bb.176:                             ##   in Loop: Header=BB5_168 Depth=2
Ltmp759:
	movq	%rax, %rdi
	leaq	112(%rsp), %rsi
	callq	__ZNSt3__113basic_istreamIcNS_11char_traitsIcEEErsERd
Ltmp760:
## %bb.177:                             ##   in Loop: Header=BB5_168 Depth=2
Ltmp761:
	movq	%rax, %rdi
	leaq	480(%rsp), %rsi
	callq	__ZNSt3__113basic_istreamIcNS_11char_traitsIcEEErsERd
Ltmp762:
## %bb.178:                             ##   in Loop: Header=BB5_168 Depth=2
	movq	(%rax), %rcx
	movq	-24(%rcx), %rcx
	testb	$5, 32(%rax,%rcx)
	jne	LBB5_316
## %bb.179:                             ##   in Loop: Header=BB5_168 Depth=2
	leaq	496(%rsp), %rsi
	movq	%rsi, 32(%rsp)
Ltmp763:
	movq	%r14, %rdi
	leaq	__ZNSt3__1L19piecewise_constructE(%rip), %rdx
	leaq	32(%rsp), %rcx
	leaq	88(%rsp), %r8
	callq	__ZNSt3__16__treeINS_12__value_typeINS_12basic_stringIcNS_11char_traitsIcEENS_9allocatorIcEEEENS_3mapIS7_NS_6vectorIdNS5_IdEEEENS_4lessIS7_EENS5_INS_4pairIKS7_SB_EEEEEEEENS_19__map_value_compareIS7_SJ_SD_Lb1EEENS5_ISJ_EEE25__emplace_unique_key_argsIS7_JRKNS_21piecewise_construct_tENS_5tupleIJRSF_EEENSS_IJEEEEEENSE_INS_15__tree_iteratorISJ_PNS_11__tree_nodeISJ_PvEElEEbEERKT_DpOT0_
	movq	%rax, %r12
Ltmp764:
## %bb.180:                             ##   in Loop: Header=BB5_168 Depth=2
	vpxor	%xmm0, %xmm0, %xmm0
	vmovdqa	%xmm0, 32(%rsp)
	leaq	56(%r12), %r13
	movq	$0, 48(%rsp)
	movb	$16, 32(%rsp)
	movabsq	$7163378107166122344, %rax ## imm = 0x63696E6F6D726168
	movq	%rax, 33(%rsp)
	movb	$0, 41(%rsp)
Ltmp765:
	movq	%r13, %rdi
	leaq	88(%rsp), %rsi
	leaq	32(%rsp), %rdx
	callq	__ZNSt3__16__treeINS_12__value_typeINS_12basic_stringIcNS_11char_traitsIcEENS_9allocatorIcEEEENS_6vectorIdNS5_IdEEEEEENS_19__map_value_compareIS7_SB_NS_4lessIS7_EELb1EEENS5_ISB_EEE12__find_equalIS7_EERPNS_16__tree_node_baseIPvEERPNS_15__tree_end_nodeISM_EERKT_
	movq	%rax, %r15
Ltmp766:
## %bb.181:                             ##   in Loop: Header=BB5_168 Depth=2
	movq	(%r15), %rbx
	testq	%rbx, %rbx
	jne	LBB5_187
## %bb.182:                             ##   in Loop: Header=BB5_168 Depth=2
Ltmp767:
	movl	$80, %edi
	callq	__Znwm
	movq	%rax, %rbx
Ltmp768:
## %bb.183:                             ##   in Loop: Header=BB5_168 Depth=2
	movq	48(%rsp), %rax
	movq	%rax, 48(%rbx)
	vmovdqa	32(%rsp), %xmm0
	vmovdqu	%xmm0, 32(%rbx)
	vpxor	%xmm0, %xmm0, %xmm0
	vmovdqa	%xmm0, 32(%rsp)
	movq	$0, 48(%rsp)
	vmovdqu	%xmm0, 56(%rbx)
	movq	$0, 72(%rbx)
	movq	88(%rsp), %rax
	vmovdqu	%xmm0, (%rbx)
	movq	%rax, 16(%rbx)
	movq	%rbx, (%r15)
	movq	(%r13), %rax
	movq	(%rax), %rax
	testq	%rax, %rax
	je	LBB5_185
## %bb.184:                             ##   in Loop: Header=BB5_168 Depth=2
	movq	%rax, (%r13)
	movq	(%r15), %rsi
	jmp	LBB5_186
LBB5_185:                               ##   in Loop: Header=BB5_168 Depth=2
	movq	%rbx, %rsi
LBB5_186:                               ##   in Loop: Header=BB5_168 Depth=2
	movq	64(%r12), %rdi
	callq	__ZNSt3__127__tree_balance_after_insertIPNS_16__tree_node_baseIPvEEEEvT_S5_
	addq	$1, 72(%r12)
LBB5_187:                               ##   in Loop: Header=BB5_168 Depth=2
	movq	64(%rbx), %rax
	cmpq	72(%rbx), %rax
	je	LBB5_189
## %bb.188:                             ##   in Loop: Header=BB5_168 Depth=2
	movq	112(%rsp), %rcx
	movq	%rcx, (%rax)
	addq	$8, %rax
	movq	%rax, 64(%rbx)
	testb	$1, 32(%rsp)
	jne	LBB5_191
	jmp	LBB5_192
LBB5_189:                               ##   in Loop: Header=BB5_168 Depth=2
	addq	$56, %rbx
Ltmp769:
	movq	%rbx, %rdi
	leaq	112(%rsp), %rsi
	callq	__ZNSt3__16vectorIdNS_9allocatorIdEEE21__push_back_slow_pathIRKdEEvOT_
Ltmp770:
## %bb.190:                             ##   in Loop: Header=BB5_168 Depth=2
	testb	$1, 32(%rsp)
	je	LBB5_192
LBB5_191:                               ##   in Loop: Header=BB5_168 Depth=2
	movq	48(%rsp), %rdi
	callq	__ZdlPv
LBB5_192:                               ##   in Loop: Header=BB5_168 Depth=2
	leaq	496(%rsp), %rsi
	movq	%rsi, 32(%rsp)
Ltmp772:
	movq	%r14, %rdi
	leaq	__ZNSt3__1L19piecewise_constructE(%rip), %rdx
	leaq	32(%rsp), %rcx
	leaq	88(%rsp), %r8
	movq	104(%rsp), %r13         ## 8-byte Reload
	callq	__ZNSt3__16__treeINS_12__value_typeINS_12basic_stringIcNS_11char_traitsIcEENS_9allocatorIcEEEENS_3mapIS7_NS_6vectorIdNS5_IdEEEENS_4lessIS7_EENS5_INS_4pairIKS7_SB_EEEEEEEENS_19__map_value_compareIS7_SJ_SD_Lb1EEENS5_ISJ_EEE25__emplace_unique_key_argsIS7_JRKNS_21piecewise_construct_tENS_5tupleIJRSF_EEENSS_IJEEEEEENSE_INS_15__tree_iteratorISJ_PNS_11__tree_nodeISJ_PvEElEEbEERKT_DpOT0_
	movq	%rax, %r12
Ltmp773:
## %bb.193:                             ##   in Loop: Header=BB5_168 Depth=2
	vpxor	%xmm0, %xmm0, %xmm0
	vmovdqa	%xmm0, 32(%rsp)
	leaq	56(%r12), %r13
	movq	$0, 48(%rsp)
	movb	$16, 32(%rsp)
	movabsq	$7163378107166122344, %rax ## imm = 0x63696E6F6D726168
	movq	%rax, 33(%rsp)
	movb	$0, 41(%rsp)
Ltmp775:
	movq	%r13, %rdi
	leaq	88(%rsp), %rsi
	leaq	32(%rsp), %rdx
	callq	__ZNSt3__16__treeINS_12__value_typeINS_12basic_stringIcNS_11char_traitsIcEENS_9allocatorIcEEEENS_6vectorIdNS5_IdEEEEEENS_19__map_value_compareIS7_SB_NS_4lessIS7_EELb1EEENS5_ISB_EEE12__find_equalIS7_EERPNS_16__tree_node_baseIPvEERPNS_15__tree_end_nodeISM_EERKT_
	movq	%rax, %r15
Ltmp776:
## %bb.194:                             ##   in Loop: Header=BB5_168 Depth=2
	movq	(%r15), %rbx
	testq	%rbx, %rbx
	jne	LBB5_200
## %bb.195:                             ##   in Loop: Header=BB5_168 Depth=2
Ltmp777:
	movl	$80, %edi
	callq	__Znwm
	movq	%rax, %rbx
Ltmp778:
## %bb.196:                             ##   in Loop: Header=BB5_168 Depth=2
	movq	48(%rsp), %rax
	movq	%rax, 48(%rbx)
	vmovdqa	32(%rsp), %xmm0
	vmovdqu	%xmm0, 32(%rbx)
	vpxor	%xmm0, %xmm0, %xmm0
	vmovdqa	%xmm0, 32(%rsp)
	movq	$0, 48(%rsp)
	vmovdqu	%xmm0, 56(%rbx)
	movq	$0, 72(%rbx)
	movq	88(%rsp), %rax
	vmovdqu	%xmm0, (%rbx)
	movq	%rax, 16(%rbx)
	movq	%rbx, (%r15)
	movq	(%r13), %rax
	movq	(%rax), %rax
	testq	%rax, %rax
	je	LBB5_198
## %bb.197:                             ##   in Loop: Header=BB5_168 Depth=2
	movq	%rax, (%r13)
	movq	(%r15), %rsi
	jmp	LBB5_199
LBB5_198:                               ##   in Loop: Header=BB5_168 Depth=2
	movq	%rbx, %rsi
LBB5_199:                               ##   in Loop: Header=BB5_168 Depth=2
	movq	64(%r12), %rdi
	callq	__ZNSt3__127__tree_balance_after_insertIPNS_16__tree_node_baseIPvEEEEvT_S5_
	addq	$1, 72(%r12)
LBB5_200:                               ##   in Loop: Header=BB5_168 Depth=2
	movq	64(%rbx), %rax
	cmpq	72(%rbx), %rax
	je	LBB5_202
## %bb.201:                             ##   in Loop: Header=BB5_168 Depth=2
	movq	480(%rsp), %rcx
	movq	%rcx, (%rax)
	addq	$8, %rax
	movq	%rax, 64(%rbx)
	testb	$1, 32(%rsp)
	jne	LBB5_204
	jmp	LBB5_205
LBB5_202:                               ##   in Loop: Header=BB5_168 Depth=2
	addq	$56, %rbx
Ltmp779:
	movq	%rbx, %rdi
	leaq	480(%rsp), %rsi
	callq	__ZNSt3__16vectorIdNS_9allocatorIdEEE21__push_back_slow_pathIRKdEEvOT_
Ltmp780:
## %bb.203:                             ##   in Loop: Header=BB5_168 Depth=2
	testb	$1, 32(%rsp)
	je	LBB5_205
LBB5_204:                               ##   in Loop: Header=BB5_168 Depth=2
	movq	48(%rsp), %rdi
	callq	__ZdlPv
LBB5_205:                               ##   in Loop: Header=BB5_168 Depth=2
	movq	24(%rsp), %rax          ## 8-byte Reload
	movq	%rax, 192(%rsp)
	movq	16(%rsp), %rax          ## 8-byte Reload
	movq	%rax, 312(%rsp)
	movq	8(%rsp), %rax           ## 8-byte Reload
	movq	%rax, 208(%rsp)
	testb	$1, 272(%rsp)
	leaq	848(%rsp), %r12
	movq	104(%rsp), %r13         ## 8-byte Reload
	leaq	208(%rsp), %rbx
	je	LBB5_167
## %bb.206:                             ##   in Loop: Header=BB5_168 Depth=2
	movq	288(%rsp), %rdi
	callq	__ZdlPv
	jmp	LBB5_167
LBB5_207:                               ##   in Loop: Header=BB5_208 Depth=2
	movq	%rbx, %rdi
	callq	__ZNSt3__115basic_streambufIcNS_11char_traitsIcEEED2Ev
	leaq	192(%rsp), %r15
	movq	%r15, %rdi
	movq	(%rsp), %rsi            ## 8-byte Reload
	callq	__ZNSt3__113basic_istreamIcNS_11char_traitsIcEEED2Ev
	leaq	312(%rsp), %rdi
	callq	__ZNSt3__19basic_iosIcNS_11char_traitsIcEEED2Ev
LBB5_208:                               ##   Parent Loop BB5_11 Depth=1
                                        ## =>  This Inner Loop Header: Depth=2
	movq	832(%rsp), %rax
	movq	-24(%rax), %rsi
	leaq	832(%rsp), %rax
	addq	%rax, %rsi
Ltmp694:
	movq	%r15, %rdi
	callq	__ZNKSt3__18ios_base6getlocEv
Ltmp695:
## %bb.209:                             ##   in Loop: Header=BB5_208 Depth=2
Ltmp696:
	movq	%r15, %rdi
	movq	__ZNSt3__15ctypeIcE2idE@GOTPCREL(%rip), %rsi
	callq	__ZNKSt3__16locale9use_facetERNS0_2idE
Ltmp697:
## %bb.210:                             ##   in Loop: Header=BB5_208 Depth=2
	movq	(%rax), %rcx
Ltmp698:
	movl	$10, %esi
	movq	%rax, %rdi
	callq	*56(%rcx)
	movl	%eax, %ebx
Ltmp699:
## %bb.211:                             ##   in Loop: Header=BB5_208 Depth=2
	movq	%r15, %rdi
	callq	__ZNSt3__16localeD1Ev
Ltmp701:
	movsbl	%bl, %edx
	leaq	832(%rsp), %rdi
	leaq	160(%rsp), %rsi
	callq	__ZNSt3__17getlineIcNS_11char_traitsIcEENS_9allocatorIcEEEERNS_13basic_istreamIT_T0_EES9_RNS_12basic_stringIS6_S7_T1_EES6_
Ltmp702:
	leaq	208(%rsp), %rbx
## %bb.212:                             ##   in Loop: Header=BB5_208 Depth=2
	movq	472(%rsp), %rax         ## 8-byte Reload
	movq	%rax, 312(%rsp)
	vmovdqa	528(%rsp), %xmm0        ## 16-byte Reload
	vmovdqa	%xmm0, 192(%rsp)
Ltmp704:
	leaq	312(%rsp), %rdi
	movq	%rbx, %rsi
	callq	__ZNSt3__18ios_base4initEPv
Ltmp705:
## %bb.213:                             ##   in Loop: Header=BB5_208 Depth=2
	movq	$0, 448(%rsp)
	movl	$-1, 456(%rsp)
	movq	24(%rsp), %rax          ## 8-byte Reload
	movq	%rax, 192(%rsp)
	movq	16(%rsp), %rax          ## 8-byte Reload
	movq	%rax, 312(%rsp)
Ltmp707:
	movq	%rbx, %rdi
	callq	__ZNSt3__115basic_streambufIcNS_11char_traitsIcEEEC2Ev
Ltmp708:
## %bb.214:                             ##   in Loop: Header=BB5_208 Depth=2
	movq	8(%rsp), %rax           ## 8-byte Reload
	movq	%rax, 208(%rsp)
	leaq	312(%rsp), %rax
	vpxor	%xmm0, %xmm0, %xmm0
	vmovdqu	%ymm0, -40(%rax)
	movl	$8, 304(%rsp)
Ltmp710:
	movq	%rbx, %rdi
	leaq	160(%rsp), %rsi
	vzeroupper
	callq	__ZNSt3__115basic_stringbufIcNS_11char_traitsIcEENS_9allocatorIcEEE3strERKNS_12basic_stringIcS2_S4_EE
Ltmp711:
## %bb.215:                             ##   in Loop: Header=BB5_208 Depth=2
Ltmp713:
	movq	%r15, %rdi
	leaq	496(%rsp), %rsi
	callq	__ZNSt3__1rsIcNS_11char_traitsIcEENS_9allocatorIcEEEERNS_13basic_istreamIT_T0_EES9_RNS_12basic_stringIS6_S7_T1_EE
Ltmp714:
## %bb.216:                             ##   in Loop: Header=BB5_208 Depth=2
Ltmp715:
	movq	%rax, %rdi
	leaq	112(%rsp), %rsi
	callq	__ZNSt3__113basic_istreamIcNS_11char_traitsIcEEErsERd
Ltmp716:
## %bb.217:                             ##   in Loop: Header=BB5_208 Depth=2
Ltmp717:
	movq	%rax, %rdi
	leaq	480(%rsp), %rsi
	callq	__ZNSt3__113basic_istreamIcNS_11char_traitsIcEEErsERd
Ltmp718:
## %bb.218:                             ##   in Loop: Header=BB5_208 Depth=2
	movq	(%rax), %rcx
	movq	-24(%rcx), %rcx
	testb	$5, 32(%rax,%rcx)
	jne	LBB5_316
## %bb.219:                             ##   in Loop: Header=BB5_208 Depth=2
	leaq	496(%rsp), %rsi
	movq	%rsi, 32(%rsp)
Ltmp719:
	movq	%r14, %rdi
	leaq	__ZNSt3__1L19piecewise_constructE(%rip), %rdx
	leaq	32(%rsp), %rcx
	leaq	88(%rsp), %r8
	callq	__ZNSt3__16__treeINS_12__value_typeINS_12basic_stringIcNS_11char_traitsIcEENS_9allocatorIcEEEENS_3mapIS7_NS_6vectorIdNS5_IdEEEENS_4lessIS7_EENS5_INS_4pairIKS7_SB_EEEEEEEENS_19__map_value_compareIS7_SJ_SD_Lb1EEENS5_ISJ_EEE25__emplace_unique_key_argsIS7_JRKNS_21piecewise_construct_tENS_5tupleIJRSF_EEENSS_IJEEEEEENSE_INS_15__tree_iteratorISJ_PNS_11__tree_nodeISJ_PvEElEEbEERKT_DpOT0_
	movq	%rax, %r12
Ltmp720:
## %bb.220:                             ##   in Loop: Header=BB5_208 Depth=2
	leaq	56(%r12), %r13
	vpxor	%xmm0, %xmm0, %xmm0
	vmovdqa	%xmm0, 32(%rsp)
	movq	$0, 48(%rsp)
	movb	$32, 32(%rsp)
	vmovdqu	L_.str.80(%rip), %xmm0
	leaq	56(%rsp), %rax
	vmovdqu	%xmm0, -23(%rax)
	movb	$0, 49(%rsp)
Ltmp721:
	movq	%r13, %rdi
	leaq	88(%rsp), %rsi
	leaq	32(%rsp), %rdx
	callq	__ZNSt3__16__treeINS_12__value_typeINS_12basic_stringIcNS_11char_traitsIcEENS_9allocatorIcEEEENS_6vectorIdNS5_IdEEEEEENS_19__map_value_compareIS7_SB_NS_4lessIS7_EELb1EEENS5_ISB_EEE12__find_equalIS7_EERPNS_16__tree_node_baseIPvEERPNS_15__tree_end_nodeISM_EERKT_
	movq	%rax, %r15
Ltmp722:
## %bb.221:                             ##   in Loop: Header=BB5_208 Depth=2
	movq	(%r15), %rbx
	testq	%rbx, %rbx
	jne	LBB5_227
## %bb.222:                             ##   in Loop: Header=BB5_208 Depth=2
Ltmp723:
	movl	$80, %edi
	callq	__Znwm
	movq	%rax, %rbx
Ltmp724:
## %bb.223:                             ##   in Loop: Header=BB5_208 Depth=2
	movq	48(%rsp), %rax
	movq	%rax, 48(%rbx)
	vmovdqa	32(%rsp), %xmm0
	vmovdqu	%xmm0, 32(%rbx)
	vpxor	%xmm0, %xmm0, %xmm0
	vmovdqa	%xmm0, 32(%rsp)
	movq	$0, 48(%rsp)
	vmovdqu	%xmm0, 56(%rbx)
	movq	$0, 72(%rbx)
	movq	88(%rsp), %rax
	vmovdqu	%xmm0, (%rbx)
	movq	%rax, 16(%rbx)
	movq	%rbx, (%r15)
	movq	(%r13), %rax
	movq	(%rax), %rax
	testq	%rax, %rax
	je	LBB5_225
## %bb.224:                             ##   in Loop: Header=BB5_208 Depth=2
	movq	%rax, (%r13)
	movq	(%r15), %rsi
	jmp	LBB5_226
LBB5_225:                               ##   in Loop: Header=BB5_208 Depth=2
	movq	%rbx, %rsi
LBB5_226:                               ##   in Loop: Header=BB5_208 Depth=2
	movq	64(%r12), %rdi
	callq	__ZNSt3__127__tree_balance_after_insertIPNS_16__tree_node_baseIPvEEEEvT_S5_
	addq	$1, 72(%r12)
LBB5_227:                               ##   in Loop: Header=BB5_208 Depth=2
	movq	64(%rbx), %rax
	cmpq	72(%rbx), %rax
	je	LBB5_229
## %bb.228:                             ##   in Loop: Header=BB5_208 Depth=2
	movq	112(%rsp), %rcx
	movq	%rcx, (%rax)
	addq	$8, %rax
	movq	%rax, 64(%rbx)
	testb	$1, 32(%rsp)
	jne	LBB5_231
	jmp	LBB5_232
LBB5_229:                               ##   in Loop: Header=BB5_208 Depth=2
	addq	$56, %rbx
Ltmp725:
	movq	%rbx, %rdi
	leaq	112(%rsp), %rsi
	callq	__ZNSt3__16vectorIdNS_9allocatorIdEEE21__push_back_slow_pathIRKdEEvOT_
Ltmp726:
## %bb.230:                             ##   in Loop: Header=BB5_208 Depth=2
	testb	$1, 32(%rsp)
	je	LBB5_232
LBB5_231:                               ##   in Loop: Header=BB5_208 Depth=2
	movq	48(%rsp), %rdi
	callq	__ZdlPv
LBB5_232:                               ##   in Loop: Header=BB5_208 Depth=2
	leaq	496(%rsp), %rsi
	movq	%rsi, 32(%rsp)
Ltmp728:
	movq	%r14, %rdi
	leaq	__ZNSt3__1L19piecewise_constructE(%rip), %rdx
	leaq	32(%rsp), %rcx
	leaq	88(%rsp), %r8
	movq	104(%rsp), %r13         ## 8-byte Reload
	callq	__ZNSt3__16__treeINS_12__value_typeINS_12basic_stringIcNS_11char_traitsIcEENS_9allocatorIcEEEENS_3mapIS7_NS_6vectorIdNS5_IdEEEENS_4lessIS7_EENS5_INS_4pairIKS7_SB_EEEEEEEENS_19__map_value_compareIS7_SJ_SD_Lb1EEENS5_ISJ_EEE25__emplace_unique_key_argsIS7_JRKNS_21piecewise_construct_tENS_5tupleIJRSF_EEENSS_IJEEEEEENSE_INS_15__tree_iteratorISJ_PNS_11__tree_nodeISJ_PvEElEEbEERKT_DpOT0_
	movq	%rax, %r12
Ltmp729:
## %bb.233:                             ##   in Loop: Header=BB5_208 Depth=2
	vpxor	%xmm0, %xmm0, %xmm0
	vmovdqa	%xmm0, 32(%rsp)
	leaq	56(%r12), %r13
	movq	$0, 48(%rsp)
	movb	$32, 32(%rsp)
	leaq	56(%rsp), %rax
	vmovdqu	L_.str.80(%rip), %xmm0
	vmovdqu	%xmm0, -23(%rax)
	movb	$0, 49(%rsp)
Ltmp731:
	movq	%r13, %rdi
	leaq	88(%rsp), %rsi
	leaq	32(%rsp), %rdx
	callq	__ZNSt3__16__treeINS_12__value_typeINS_12basic_stringIcNS_11char_traitsIcEENS_9allocatorIcEEEENS_6vectorIdNS5_IdEEEEEENS_19__map_value_compareIS7_SB_NS_4lessIS7_EELb1EEENS5_ISB_EEE12__find_equalIS7_EERPNS_16__tree_node_baseIPvEERPNS_15__tree_end_nodeISM_EERKT_
	movq	%rax, %r15
Ltmp732:
## %bb.234:                             ##   in Loop: Header=BB5_208 Depth=2
	movq	(%r15), %rbx
	testq	%rbx, %rbx
	jne	LBB5_240
## %bb.235:                             ##   in Loop: Header=BB5_208 Depth=2
Ltmp733:
	movl	$80, %edi
	callq	__Znwm
	movq	%rax, %rbx
Ltmp734:
## %bb.236:                             ##   in Loop: Header=BB5_208 Depth=2
	movq	48(%rsp), %rax
	movq	%rax, 48(%rbx)
	vmovdqa	32(%rsp), %xmm0
	vmovdqu	%xmm0, 32(%rbx)
	vpxor	%xmm0, %xmm0, %xmm0
	vmovdqa	%xmm0, 32(%rsp)
	movq	$0, 48(%rsp)
	vmovdqu	%xmm0, 56(%rbx)
	movq	$0, 72(%rbx)
	movq	88(%rsp), %rax
	vmovdqu	%xmm0, (%rbx)
	movq	%rax, 16(%rbx)
	movq	%rbx, (%r15)
	movq	(%r13), %rax
	movq	(%rax), %rax
	testq	%rax, %rax
	je	LBB5_238
## %bb.237:                             ##   in Loop: Header=BB5_208 Depth=2
	movq	%rax, (%r13)
	movq	(%r15), %rsi
	jmp	LBB5_239
LBB5_238:                               ##   in Loop: Header=BB5_208 Depth=2
	movq	%rbx, %rsi
LBB5_239:                               ##   in Loop: Header=BB5_208 Depth=2
	movq	64(%r12), %rdi
	callq	__ZNSt3__127__tree_balance_after_insertIPNS_16__tree_node_baseIPvEEEEvT_S5_
	addq	$1, 72(%r12)
LBB5_240:                               ##   in Loop: Header=BB5_208 Depth=2
	movq	64(%rbx), %rax
	cmpq	72(%rbx), %rax
	je	LBB5_242
## %bb.241:                             ##   in Loop: Header=BB5_208 Depth=2
	movq	480(%rsp), %rcx
	movq	%rcx, (%rax)
	addq	$8, %rax
	movq	%rax, 64(%rbx)
	testb	$1, 32(%rsp)
	jne	LBB5_244
	jmp	LBB5_245
LBB5_242:                               ##   in Loop: Header=BB5_208 Depth=2
	addq	$56, %rbx
Ltmp735:
	movq	%rbx, %rdi
	leaq	480(%rsp), %rsi
	callq	__ZNSt3__16vectorIdNS_9allocatorIdEEE21__push_back_slow_pathIRKdEEvOT_
Ltmp736:
## %bb.243:                             ##   in Loop: Header=BB5_208 Depth=2
	testb	$1, 32(%rsp)
	je	LBB5_245
LBB5_244:                               ##   in Loop: Header=BB5_208 Depth=2
	movq	48(%rsp), %rdi
	callq	__ZdlPv
LBB5_245:                               ##   in Loop: Header=BB5_208 Depth=2
	movq	24(%rsp), %rax          ## 8-byte Reload
	movq	%rax, 192(%rsp)
	movq	16(%rsp), %rax          ## 8-byte Reload
	movq	%rax, 312(%rsp)
	movq	8(%rsp), %rax           ## 8-byte Reload
	movq	%rax, 208(%rsp)
	testb	$1, 272(%rsp)
	leaq	848(%rsp), %r12
	movq	104(%rsp), %r13         ## 8-byte Reload
	leaq	208(%rsp), %rbx
	je	LBB5_207
## %bb.246:                             ##   in Loop: Header=BB5_208 Depth=2
	movq	288(%rsp), %rdi
	callq	__ZdlPv
	jmp	LBB5_207
LBB5_247:                               ##   in Loop: Header=BB5_248 Depth=2
	movq	%rbx, %rdi
	callq	__ZNSt3__115basic_streambufIcNS_11char_traitsIcEEED2Ev
	leaq	192(%rsp), %r15
	movq	%r15, %rdi
	movq	(%rsp), %rsi            ## 8-byte Reload
	callq	__ZNSt3__113basic_istreamIcNS_11char_traitsIcEEED2Ev
	leaq	312(%rsp), %rdi
	callq	__ZNSt3__19basic_iosIcNS_11char_traitsIcEEED2Ev
LBB5_248:                               ##   Parent Loop BB5_11 Depth=1
                                        ## =>  This Inner Loop Header: Depth=2
	movq	832(%rsp), %rax
	movq	-24(%rax), %rsi
	leaq	832(%rsp), %rax
	addq	%rax, %rsi
Ltmp617:
	movq	%r15, %rdi
	callq	__ZNKSt3__18ios_base6getlocEv
Ltmp618:
## %bb.249:                             ##   in Loop: Header=BB5_248 Depth=2
Ltmp619:
	movq	%r15, %rdi
	movq	__ZNSt3__15ctypeIcE2idE@GOTPCREL(%rip), %rsi
	callq	__ZNKSt3__16locale9use_facetERNS0_2idE
Ltmp620:
## %bb.250:                             ##   in Loop: Header=BB5_248 Depth=2
	movq	(%rax), %rcx
Ltmp621:
	movl	$10, %esi
	movq	%rax, %rdi
	callq	*56(%rcx)
	movl	%eax, %ebx
Ltmp622:
## %bb.251:                             ##   in Loop: Header=BB5_248 Depth=2
	movq	%r15, %rdi
	callq	__ZNSt3__16localeD1Ev
Ltmp624:
	movsbl	%bl, %edx
	leaq	832(%rsp), %rdi
	leaq	160(%rsp), %rsi
	callq	__ZNSt3__17getlineIcNS_11char_traitsIcEENS_9allocatorIcEEEERNS_13basic_istreamIT_T0_EES9_RNS_12basic_stringIS6_S7_T1_EES6_
Ltmp625:
	leaq	208(%rsp), %rbx
## %bb.252:                             ##   in Loop: Header=BB5_248 Depth=2
	movq	472(%rsp), %rax         ## 8-byte Reload
	movq	%rax, 312(%rsp)
	vmovdqa	528(%rsp), %xmm0        ## 16-byte Reload
	vmovdqa	%xmm0, 192(%rsp)
Ltmp627:
	leaq	312(%rsp), %rdi
	movq	%rbx, %rsi
	callq	__ZNSt3__18ios_base4initEPv
Ltmp628:
